   1              		.syntax unified
   2              		.cpu cortex-m3
   3              		.fpu softvfp
   4              		.eabi_attribute 20, 1
   5              		.eabi_attribute 21, 1
   6              		.eabi_attribute 23, 3
   7              		.eabi_attribute 24, 1
   8              		.eabi_attribute 25, 1
   9              		.eabi_attribute 26, 1
  10              		.eabi_attribute 30, 4
  11              		.eabi_attribute 18, 4
  12              		.thumb
  13              		.file	"stm32f10x_sdio.c"
  14              		.section	.text.SDIO_DeInit,"ax",%progbits
  15              		.align	1
  16              		.global	SDIO_DeInit
  17              		.thumb
  18              		.thumb_func
  20              	SDIO_DeInit:
  21              		@ args = 0, pretend = 0, frame = 0
  22              		@ frame_needed = 0, uses_anonymous_args = 0
  23              		@ link register save eliminated.
  24 0000 064B     		ldr	r3, .L2
  25 0002 0749     		ldr	r1, .L2+4
  26 0004 0022     		movs	r2, #0
  27 0006 1A60     		str	r2, [r3, #0]
  28 0008 5A60     		str	r2, [r3, #4]
  29 000a 9A60     		str	r2, [r3, #8]
  30 000c DA60     		str	r2, [r3, #12]
  31 000e 5A62     		str	r2, [r3, #36]
  32 0010 9A62     		str	r2, [r3, #40]
  33 0012 DA62     		str	r2, [r3, #44]
  34 0014 9963     		str	r1, [r3, #56]
  35 0016 DA63     		str	r2, [r3, #60]
  36 0018 7047     		bx	lr
  37              	.L3:
  38 001a 00BF     		.align	2
  39              	.L2:
  40 001c 00800140 		.word	1073840128
  41 0020 FF07C000 		.word	12584959
  43              		.section	.text.SDIO_Init,"ax",%progbits
  44              		.align	1
  45              		.global	SDIO_Init
  46              		.thumb
  47              		.thumb_func
  49              	SDIO_Init:
  50              		@ args = 0, pretend = 0, frame = 0
  51              		@ frame_needed = 0, uses_anonymous_args = 0
  52 0000 10B5     		push	{r4, lr}
  53 0002 8168     		ldr	r1, [r0, #8]
  54 0004 4468     		ldr	r4, [r0, #4]
  55 0006 094A     		ldr	r2, .L5
  56 0008 2143     		orrs	r1, r1, r4
  57 000a C468     		ldr	r4, [r0, #12]
  58 000c 5368     		ldr	r3, [r2, #4]
  59 000e 2143     		orrs	r1, r1, r4
  60 0010 0468     		ldr	r4, [r0, #0]
  61 0012 23F4FC43 		bic	r3, r3, #32256
  62 0016 2143     		orrs	r1, r1, r4
  63 0018 0469     		ldr	r4, [r0, #16]
  64 001a 23F0FF03 		bic	r3, r3, #255
  65 001e 2143     		orrs	r1, r1, r4
  66 0020 0B43     		orrs	r3, r3, r1
  67 0022 017D     		ldrb	r1, [r0, #20]	@ zero_extendqisi2
  68 0024 0B43     		orrs	r3, r3, r1
  69 0026 5360     		str	r3, [r2, #4]
  70 0028 10BD     		pop	{r4, pc}
  71              	.L6:
  72 002a 00BF     		.align	2
  73              	.L5:
  74 002c 00800140 		.word	1073840128
  76              		.section	.text.SDIO_StructInit,"ax",%progbits
  77              		.align	1
  78              		.global	SDIO_StructInit
  79              		.thumb
  80              		.thumb_func
  82              	SDIO_StructInit:
  83              		@ args = 0, pretend = 0, frame = 0
  84              		@ frame_needed = 0, uses_anonymous_args = 0
  85              		@ link register save eliminated.
  86 0000 0023     		movs	r3, #0
  87 0002 0375     		strb	r3, [r0, #20]
  88 0004 0360     		str	r3, [r0, #0]
  89 0006 4360     		str	r3, [r0, #4]
  90 0008 8360     		str	r3, [r0, #8]
  91 000a C360     		str	r3, [r0, #12]
  92 000c 0361     		str	r3, [r0, #16]
  93 000e 7047     		bx	lr
  95              		.section	.text.SDIO_ClockCmd,"ax",%progbits
  96              		.align	1
  97              		.global	SDIO_ClockCmd
  98              		.thumb
  99              		.thumb_func
 101              	SDIO_ClockCmd:
 102              		@ args = 0, pretend = 0, frame = 0
 103              		@ frame_needed = 0, uses_anonymous_args = 0
 104              		@ link register save eliminated.
 105 0000 014B     		ldr	r3, .L9
 106 0002 1860     		str	r0, [r3, #0]
 107 0004 7047     		bx	lr
 108              	.L10:
 109 0006 00BF     		.align	2
 110              	.L9:
 111 0008 A0003042 		.word	1110442144
 113              		.section	.text.SDIO_SetPowerState,"ax",%progbits
 114              		.align	1
 115              		.global	SDIO_SetPowerState
 116              		.thumb
 117              		.thumb_func
 119              	SDIO_SetPowerState:
 120              		@ args = 0, pretend = 0, frame = 0
 121              		@ frame_needed = 0, uses_anonymous_args = 0
 122              		@ link register save eliminated.
 123 0000 044B     		ldr	r3, .L12
 124 0002 1A68     		ldr	r2, [r3, #0]
 125 0004 22F00302 		bic	r2, r2, #3
 126 0008 1A60     		str	r2, [r3, #0]
 127 000a 1A68     		ldr	r2, [r3, #0]
 128 000c 1043     		orrs	r0, r0, r2
 129 000e 1860     		str	r0, [r3, #0]
 130 0010 7047     		bx	lr
 131              	.L13:
 132 0012 00BF     		.align	2
 133              	.L12:
 134 0014 00800140 		.word	1073840128
 136              		.section	.text.SDIO_GetPowerState,"ax",%progbits
 137              		.align	1
 138              		.global	SDIO_GetPowerState
 139              		.thumb
 140              		.thumb_func
 142              	SDIO_GetPowerState:
 143              		@ args = 0, pretend = 0, frame = 0
 144              		@ frame_needed = 0, uses_anonymous_args = 0
 145              		@ link register save eliminated.
 146 0000 024B     		ldr	r3, .L15
 147 0002 1868     		ldr	r0, [r3, #0]
 148 0004 00F00300 		and	r0, r0, #3
 149 0008 7047     		bx	lr
 150              	.L16:
 151 000a 00BF     		.align	2
 152              	.L15:
 153 000c 00800140 		.word	1073840128
 155              		.section	.text.SDIO_ITConfig,"ax",%progbits
 156              		.align	1
 157              		.global	SDIO_ITConfig
 158              		.thumb
 159              		.thumb_func
 161              	SDIO_ITConfig:
 162              		@ args = 0, pretend = 0, frame = 0
 163              		@ frame_needed = 0, uses_anonymous_args = 0
 164              		@ link register save eliminated.
 165 0000 044B     		ldr	r3, .L21
 166 0002 DA6B     		ldr	r2, [r3, #60]
 167 0004 09B1     		cbz	r1, .L18
 168 0006 1043     		orrs	r0, r0, r2
 169 0008 01E0     		b	.L20
 170              	.L18:
 171 000a 22EA0000 		bic	r0, r2, r0
 172              	.L20:
 173 000e D863     		str	r0, [r3, #60]
 174 0010 7047     		bx	lr
 175              	.L22:
 176 0012 00BF     		.align	2
 177              	.L21:
 178 0014 00800140 		.word	1073840128
 180              		.section	.text.SDIO_DMACmd,"ax",%progbits
 181              		.align	1
 182              		.global	SDIO_DMACmd
 183              		.thumb
 184              		.thumb_func
 186              	SDIO_DMACmd:
 187              		@ args = 0, pretend = 0, frame = 0
 188              		@ frame_needed = 0, uses_anonymous_args = 0
 189              		@ link register save eliminated.
 190 0000 014B     		ldr	r3, .L24
 191 0002 1860     		str	r0, [r3, #0]
 192 0004 7047     		bx	lr
 193              	.L25:
 194 0006 00BF     		.align	2
 195              	.L24:
 196 0008 8C053042 		.word	1110443404
 198              		.section	.text.SDIO_SendCommand,"ax",%progbits
 199              		.align	1
 200              		.global	SDIO_SendCommand
 201              		.thumb
 202              		.thumb_func
 204              	SDIO_SendCommand:
 205              		@ args = 0, pretend = 0, frame = 0
 206              		@ frame_needed = 0, uses_anonymous_args = 0
 207 0000 10B5     		push	{r4, lr}
 208 0002 0268     		ldr	r2, [r0, #0]
 209 0004 084B     		ldr	r3, .L27
 210 0006 9A60     		str	r2, [r3, #8]
 211 0008 8468     		ldr	r4, [r0, #8]
 212 000a 4168     		ldr	r1, [r0, #4]
 213 000c DA68     		ldr	r2, [r3, #12]
 214 000e 2143     		orrs	r1, r1, r4
 215 0010 C468     		ldr	r4, [r0, #12]
 216 0012 0069     		ldr	r0, [r0, #16]
 217 0014 22F4FE62 		bic	r2, r2, #2032
 218 0018 2143     		orrs	r1, r1, r4
 219 001a 22F00F02 		bic	r2, r2, #15
 220 001e 0143     		orrs	r1, r1, r0
 221 0020 0A43     		orrs	r2, r2, r1
 222 0022 DA60     		str	r2, [r3, #12]
 223 0024 10BD     		pop	{r4, pc}
 224              	.L28:
 225 0026 00BF     		.align	2
 226              	.L27:
 227 0028 00800140 		.word	1073840128
 229              		.section	.text.SDIO_CmdStructInit,"ax",%progbits
 230              		.align	1
 231              		.global	SDIO_CmdStructInit
 232              		.thumb
 233              		.thumb_func
 235              	SDIO_CmdStructInit:
 236              		@ args = 0, pretend = 0, frame = 0
 237              		@ frame_needed = 0, uses_anonymous_args = 0
 238              		@ link register save eliminated.
 239 0000 0023     		movs	r3, #0
 240 0002 0360     		str	r3, [r0, #0]
 241 0004 4360     		str	r3, [r0, #4]
 242 0006 8360     		str	r3, [r0, #8]
 243 0008 C360     		str	r3, [r0, #12]
 244 000a 0361     		str	r3, [r0, #16]
 245 000c 7047     		bx	lr
 247              		.section	.text.SDIO_GetCommandResponse,"ax",%progbits
 248              		.align	1
 249              		.global	SDIO_GetCommandResponse
 250              		.thumb
 251              		.thumb_func
 253              	SDIO_GetCommandResponse:
 254              		@ args = 0, pretend = 0, frame = 0
 255              		@ frame_needed = 0, uses_anonymous_args = 0
 256              		@ link register save eliminated.
 257 0000 014B     		ldr	r3, .L31
 258 0002 1869     		ldr	r0, [r3, #16]
 259 0004 C0B2     		uxtb	r0, r0
 260 0006 7047     		bx	lr
 261              	.L32:
 262              		.align	2
 263              	.L31:
 264 0008 00800140 		.word	1073840128
 266              		.section	.text.SDIO_GetResponse,"ax",%progbits
 267              		.align	1
 268              		.global	SDIO_GetResponse
 269              		.thumb
 270              		.thumb_func
 272              	SDIO_GetResponse:
 273              		@ args = 0, pretend = 0, frame = 8
 274              		@ frame_needed = 0, uses_anonymous_args = 0
 275              		@ link register save eliminated.
 276 0000 82B0     		sub	sp, sp, #8
 277 0002 0023     		movs	r3, #0
 278 0004 0193     		str	r3, [sp, #4]
 279 0006 034B     		ldr	r3, .L34
 280 0008 C318     		adds	r3, r0, r3
 281 000a 0193     		str	r3, [sp, #4]
 282 000c 019B     		ldr	r3, [sp, #4]
 283 000e 1868     		ldr	r0, [r3, #0]
 284 0010 02B0     		add	sp, sp, #8
 285 0012 7047     		bx	lr
 286              	.L35:
 287              		.align	2
 288              	.L34:
 289 0014 14800140 		.word	1073840148
 291              		.section	.text.SDIO_DataConfig,"ax",%progbits
 292              		.align	1
 293              		.global	SDIO_DataConfig
 294              		.thumb
 295              		.thumb_func
 297              	SDIO_DataConfig:
 298              		@ args = 0, pretend = 0, frame = 0
 299              		@ frame_needed = 0, uses_anonymous_args = 0
 300 0000 0268     		ldr	r2, [r0, #0]
 301 0002 094B     		ldr	r3, .L37
 302 0004 10B5     		push	{r4, lr}
 303 0006 5A62     		str	r2, [r3, #36]
 304 0008 4268     		ldr	r2, [r0, #4]
 305 000a 9A62     		str	r2, [r3, #40]
 306 000c C468     		ldr	r4, [r0, #12]
 307 000e 8268     		ldr	r2, [r0, #8]
 308 0010 D96A     		ldr	r1, [r3, #44]
 309 0012 2243     		orrs	r2, r2, r4
 310 0014 0469     		ldr	r4, [r0, #16]
 311 0016 4069     		ldr	r0, [r0, #20]
 312 0018 2243     		orrs	r2, r2, r4
 313 001a 21F0F701 		bic	r1, r1, #247
 314 001e 0243     		orrs	r2, r2, r0
 315 0020 0A43     		orrs	r2, r2, r1
 316 0022 DA62     		str	r2, [r3, #44]
 317 0024 10BD     		pop	{r4, pc}
 318              	.L38:
 319 0026 00BF     		.align	2
 320              	.L37:
 321 0028 00800140 		.word	1073840128
 323              		.section	.text.SDIO_DataStructInit,"ax",%progbits
 324              		.align	1
 325              		.global	SDIO_DataStructInit
 326              		.thumb
 327              		.thumb_func
 329              	SDIO_DataStructInit:
 330              		@ args = 0, pretend = 0, frame = 0
 331              		@ frame_needed = 0, uses_anonymous_args = 0
 332              		@ link register save eliminated.
 333 0000 4FF0FF33 		mov	r3, #-1
 334 0004 0360     		str	r3, [r0, #0]
 335 0006 0023     		movs	r3, #0
 336 0008 4360     		str	r3, [r0, #4]
 337 000a 8360     		str	r3, [r0, #8]
 338 000c C360     		str	r3, [r0, #12]
 339 000e 0361     		str	r3, [r0, #16]
 340 0010 4361     		str	r3, [r0, #20]
 341 0012 7047     		bx	lr
 343              		.section	.text.SDIO_GetDataCounter,"ax",%progbits
 344              		.align	1
 345              		.global	SDIO_GetDataCounter
 346              		.thumb
 347              		.thumb_func
 349              	SDIO_GetDataCounter:
 350              		@ args = 0, pretend = 0, frame = 0
 351              		@ frame_needed = 0, uses_anonymous_args = 0
 352              		@ link register save eliminated.
 353 0000 014B     		ldr	r3, .L41
 354 0002 186B     		ldr	r0, [r3, #48]
 355 0004 7047     		bx	lr
 356              	.L42:
 357 0006 00BF     		.align	2
 358              	.L41:
 359 0008 00800140 		.word	1073840128
 361              		.section	.text.SDIO_ReadData,"ax",%progbits
 362              		.align	1
 363              		.global	SDIO_ReadData
 364              		.thumb
 365              		.thumb_func
 367              	SDIO_ReadData:
 368              		@ args = 0, pretend = 0, frame = 0
 369              		@ frame_needed = 0, uses_anonymous_args = 0
 370              		@ link register save eliminated.
 371 0000 014B     		ldr	r3, .L44
 372 0002 D3F88000 		ldr	r0, [r3, #128]
 373 0006 7047     		bx	lr
 374              	.L45:
 375              		.align	2
 376              	.L44:
 377 0008 00800140 		.word	1073840128
 379              		.section	.text.SDIO_WriteData,"ax",%progbits
 380              		.align	1
 381              		.global	SDIO_WriteData
 382              		.thumb
 383              		.thumb_func
 385              	SDIO_WriteData:
 386              		@ args = 0, pretend = 0, frame = 0
 387              		@ frame_needed = 0, uses_anonymous_args = 0
 388              		@ link register save eliminated.
 389 0000 014B     		ldr	r3, .L47
 390 0002 C3F88000 		str	r0, [r3, #128]
 391 0006 7047     		bx	lr
 392              	.L48:
 393              		.align	2
 394              	.L47:
 395 0008 00800140 		.word	1073840128
 397              		.section	.text.SDIO_GetFIFOCount,"ax",%progbits
 398              		.align	1
 399              		.global	SDIO_GetFIFOCount
 400              		.thumb
 401              		.thumb_func
 403              	SDIO_GetFIFOCount:
 404              		@ args = 0, pretend = 0, frame = 0
 405              		@ frame_needed = 0, uses_anonymous_args = 0
 406              		@ link register save eliminated.
 407 0000 014B     		ldr	r3, .L50
 408 0002 986C     		ldr	r0, [r3, #72]
 409 0004 7047     		bx	lr
 410              	.L51:
 411 0006 00BF     		.align	2
 412              	.L50:
 413 0008 00800140 		.word	1073840128
 415              		.section	.text.SDIO_StartSDIOReadWait,"ax",%progbits
 416              		.align	1
 417              		.global	SDIO_StartSDIOReadWait
 418              		.thumb
 419              		.thumb_func
 421              	SDIO_StartSDIOReadWait:
 422              		@ args = 0, pretend = 0, frame = 0
 423              		@ frame_needed = 0, uses_anonymous_args = 0
 424              		@ link register save eliminated.
 425 0000 014B     		ldr	r3, .L53
 426 0002 1860     		str	r0, [r3, #0]
 427 0004 7047     		bx	lr
 428              	.L54:
 429 0006 00BF     		.align	2
 430              	.L53:
 431 0008 A0053042 		.word	1110443424
 433              		.section	.text.SDIO_StopSDIOReadWait,"ax",%progbits
 434              		.align	1
 435              		.global	SDIO_StopSDIOReadWait
 436              		.thumb
 437              		.thumb_func
 439              	SDIO_StopSDIOReadWait:
 440              		@ args = 0, pretend = 0, frame = 0
 441              		@ frame_needed = 0, uses_anonymous_args = 0
 442              		@ link register save eliminated.
 443 0000 014B     		ldr	r3, .L56
 444 0002 1860     		str	r0, [r3, #0]
 445 0004 7047     		bx	lr
 446              	.L57:
 447 0006 00BF     		.align	2
 448              	.L56:
 449 0008 A4053042 		.word	1110443428
 451              		.section	.text.SDIO_SetSDIOReadWaitMode,"ax",%progbits
 452              		.align	1
 453              		.global	SDIO_SetSDIOReadWaitMode
 454              		.thumb
 455              		.thumb_func
 457              	SDIO_SetSDIOReadWaitMode:
 458              		@ args = 0, pretend = 0, frame = 0
 459              		@ frame_needed = 0, uses_anonymous_args = 0
 460              		@ link register save eliminated.
 461 0000 014B     		ldr	r3, .L59
 462 0002 1860     		str	r0, [r3, #0]
 463 0004 7047     		bx	lr
 464              	.L60:
 465 0006 00BF     		.align	2
 466              	.L59:
 467 0008 A8053042 		.word	1110443432
 469              		.section	.text.SDIO_SetSDIOOperation,"ax",%progbits
 470              		.align	1
 471              		.global	SDIO_SetSDIOOperation
 472              		.thumb
 473              		.thumb_func
 475              	SDIO_SetSDIOOperation:
 476              		@ args = 0, pretend = 0, frame = 0
 477              		@ frame_needed = 0, uses_anonymous_args = 0
 478              		@ link register save eliminated.
 479 0000 014B     		ldr	r3, .L62
 480 0002 1860     		str	r0, [r3, #0]
 481 0004 7047     		bx	lr
 482              	.L63:
 483 0006 00BF     		.align	2
 484              	.L62:
 485 0008 AC053042 		.word	1110443436
 487              		.section	.text.SDIO_SendSDIOSuspendCmd,"ax",%progbits
 488              		.align	1
 489              		.global	SDIO_SendSDIOSuspendCmd
 490              		.thumb
 491              		.thumb_func
 493              	SDIO_SendSDIOSuspendCmd:
 494              		@ args = 0, pretend = 0, frame = 0
 495              		@ frame_needed = 0, uses_anonymous_args = 0
 496              		@ link register save eliminated.
 497 0000 014B     		ldr	r3, .L65
 498 0002 1860     		str	r0, [r3, #0]
 499 0004 7047     		bx	lr
 500              	.L66:
 501 0006 00BF     		.align	2
 502              	.L65:
 503 0008 AC013042 		.word	1110442412
 505              		.section	.text.SDIO_CommandCompletionCmd,"ax",%progbits
 506              		.align	1
 507              		.global	SDIO_CommandCompletionCmd
 508              		.thumb
 509              		.thumb_func
 511              	SDIO_CommandCompletionCmd:
 512              		@ args = 0, pretend = 0, frame = 0
 513              		@ frame_needed = 0, uses_anonymous_args = 0
 514              		@ link register save eliminated.
 515 0000 014B     		ldr	r3, .L68
 516 0002 1860     		str	r0, [r3, #0]
 517 0004 7047     		bx	lr
 518              	.L69:
 519 0006 00BF     		.align	2
 520              	.L68:
 521 0008 B0013042 		.word	1110442416
 523              		.section	.text.SDIO_CEATAITCmd,"ax",%progbits
 524              		.align	1
 525              		.global	SDIO_CEATAITCmd
 526              		.thumb
 527              		.thumb_func
 529              	SDIO_CEATAITCmd:
 530              		@ args = 0, pretend = 0, frame = 0
 531              		@ frame_needed = 0, uses_anonymous_args = 0
 532              		@ link register save eliminated.
 533 0000 00F00100 		and	r0, r0, #1
 534 0004 024B     		ldr	r3, .L71
 535 0006 80F00100 		eor	r0, r0, #1
 536 000a 1860     		str	r0, [r3, #0]
 537 000c 7047     		bx	lr
 538              	.L72:
 539 000e 00BF     		.align	2
 540              	.L71:
 541 0010 B4013042 		.word	1110442420
 543              		.section	.text.SDIO_SendCEATACmd,"ax",%progbits
 544              		.align	1
 545              		.global	SDIO_SendCEATACmd
 546              		.thumb
 547              		.thumb_func
 549              	SDIO_SendCEATACmd:
 550              		@ args = 0, pretend = 0, frame = 0
 551              		@ frame_needed = 0, uses_anonymous_args = 0
 552              		@ link register save eliminated.
 553 0000 014B     		ldr	r3, .L74
 554 0002 1860     		str	r0, [r3, #0]
 555 0004 7047     		bx	lr
 556              	.L75:
 557 0006 00BF     		.align	2
 558              	.L74:
 559 0008 B8013042 		.word	1110442424
 561              		.section	.text.SDIO_GetFlagStatus,"ax",%progbits
 562              		.align	1
 563              		.global	SDIO_GetFlagStatus
 564              		.thumb
 565              		.thumb_func
 567              	SDIO_GetFlagStatus:
 568              		@ args = 0, pretend = 0, frame = 0
 569              		@ frame_needed = 0, uses_anonymous_args = 0
 570              		@ link register save eliminated.
 571 0000 034B     		ldr	r3, .L77
 572 0002 5B6B     		ldr	r3, [r3, #52]
 573 0004 1842     		tst	r0, r3
 574 0006 0CBF     		ite	eq
 575 0008 0020     		moveq	r0, #0
 576 000a 0120     		movne	r0, #1
 577 000c 7047     		bx	lr
 578              	.L78:
 579 000e 00BF     		.align	2
 580              	.L77:
 581 0010 00800140 		.word	1073840128
 583              		.section	.text.SDIO_ClearFlag,"ax",%progbits
 584              		.align	1
 585              		.global	SDIO_ClearFlag
 586              		.thumb
 587              		.thumb_func
 589              	SDIO_ClearFlag:
 590              		@ args = 0, pretend = 0, frame = 0
 591              		@ frame_needed = 0, uses_anonymous_args = 0
 592              		@ link register save eliminated.
 593 0000 014B     		ldr	r3, .L80
 594 0002 9863     		str	r0, [r3, #56]
 595 0004 7047     		bx	lr
 596              	.L81:
 597 0006 00BF     		.align	2
 598              	.L80:
 599 0008 00800140 		.word	1073840128
 601              		.section	.text.SDIO_GetITStatus,"ax",%progbits
 602              		.align	1
 603              		.global	SDIO_GetITStatus
 604              		.thumb
 605              		.thumb_func
 607              	SDIO_GetITStatus:
 608              		@ args = 0, pretend = 0, frame = 0
 609              		@ frame_needed = 0, uses_anonymous_args = 0
 610              		@ link register save eliminated.
 611 0000 034B     		ldr	r3, .L83
 612 0002 5B6B     		ldr	r3, [r3, #52]
 613 0004 1842     		tst	r0, r3
 614 0006 0CBF     		ite	eq
 615 0008 0020     		moveq	r0, #0
 616 000a 0120     		movne	r0, #1
 617 000c 7047     		bx	lr
 618              	.L84:
 619 000e 00BF     		.align	2
 620              	.L83:
 621 0010 00800140 		.word	1073840128
 623              		.section	.text.SDIO_ClearITPendingBit,"ax",%progbits
 624              		.align	1
 625              		.global	SDIO_ClearITPendingBit
 626              		.thumb
 627              		.thumb_func
 629              	SDIO_ClearITPendingBit:
 630              		@ args = 0, pretend = 0, frame = 0
 631              		@ frame_needed = 0, uses_anonymous_args = 0
 632              		@ link register save eliminated.
 633 0000 014B     		ldr	r3, .L86
 634 0002 9863     		str	r0, [r3, #56]
 635 0004 7047     		bx	lr
 636              	.L87:
 637 0006 00BF     		.align	2
 638              	.L86:
 639 0008 00800140 		.word	1073840128
 641              		.ident	"GCC: (GNU) 4.6.2"
DEFINED SYMBOLS
                            *ABS*:00000000 stm32f10x_sdio.c
C:\Users\kreyl\AppData\Local\Temp\ccTDYpAm.s:15     .text.SDIO_DeInit:00000000 $t
C:\Users\kreyl\AppData\Local\Temp\ccTDYpAm.s:20     .text.SDIO_DeInit:00000000 SDIO_DeInit
C:\Users\kreyl\AppData\Local\Temp\ccTDYpAm.s:40     .text.SDIO_DeInit:0000001c $d
C:\Users\kreyl\AppData\Local\Temp\ccTDYpAm.s:44     .text.SDIO_Init:00000000 $t
C:\Users\kreyl\AppData\Local\Temp\ccTDYpAm.s:49     .text.SDIO_Init:00000000 SDIO_Init
C:\Users\kreyl\AppData\Local\Temp\ccTDYpAm.s:74     .text.SDIO_Init:0000002c $d
C:\Users\kreyl\AppData\Local\Temp\ccTDYpAm.s:77     .text.SDIO_StructInit:00000000 $t
C:\Users\kreyl\AppData\Local\Temp\ccTDYpAm.s:82     .text.SDIO_StructInit:00000000 SDIO_StructInit
C:\Users\kreyl\AppData\Local\Temp\ccTDYpAm.s:96     .text.SDIO_ClockCmd:00000000 $t
C:\Users\kreyl\AppData\Local\Temp\ccTDYpAm.s:101    .text.SDIO_ClockCmd:00000000 SDIO_ClockCmd
C:\Users\kreyl\AppData\Local\Temp\ccTDYpAm.s:111    .text.SDIO_ClockCmd:00000008 $d
C:\Users\kreyl\AppData\Local\Temp\ccTDYpAm.s:114    .text.SDIO_SetPowerState:00000000 $t
C:\Users\kreyl\AppData\Local\Temp\ccTDYpAm.s:119    .text.SDIO_SetPowerState:00000000 SDIO_SetPowerState
C:\Users\kreyl\AppData\Local\Temp\ccTDYpAm.s:134    .text.SDIO_SetPowerState:00000014 $d
C:\Users\kreyl\AppData\Local\Temp\ccTDYpAm.s:137    .text.SDIO_GetPowerState:00000000 $t
C:\Users\kreyl\AppData\Local\Temp\ccTDYpAm.s:142    .text.SDIO_GetPowerState:00000000 SDIO_GetPowerState
C:\Users\kreyl\AppData\Local\Temp\ccTDYpAm.s:153    .text.SDIO_GetPowerState:0000000c $d
C:\Users\kreyl\AppData\Local\Temp\ccTDYpAm.s:156    .text.SDIO_ITConfig:00000000 $t
C:\Users\kreyl\AppData\Local\Temp\ccTDYpAm.s:161    .text.SDIO_ITConfig:00000000 SDIO_ITConfig
C:\Users\kreyl\AppData\Local\Temp\ccTDYpAm.s:178    .text.SDIO_ITConfig:00000014 $d
C:\Users\kreyl\AppData\Local\Temp\ccTDYpAm.s:181    .text.SDIO_DMACmd:00000000 $t
C:\Users\kreyl\AppData\Local\Temp\ccTDYpAm.s:186    .text.SDIO_DMACmd:00000000 SDIO_DMACmd
C:\Users\kreyl\AppData\Local\Temp\ccTDYpAm.s:196    .text.SDIO_DMACmd:00000008 $d
C:\Users\kreyl\AppData\Local\Temp\ccTDYpAm.s:199    .text.SDIO_SendCommand:00000000 $t
C:\Users\kreyl\AppData\Local\Temp\ccTDYpAm.s:204    .text.SDIO_SendCommand:00000000 SDIO_SendCommand
C:\Users\kreyl\AppData\Local\Temp\ccTDYpAm.s:227    .text.SDIO_SendCommand:00000028 $d
C:\Users\kreyl\AppData\Local\Temp\ccTDYpAm.s:230    .text.SDIO_CmdStructInit:00000000 $t
C:\Users\kreyl\AppData\Local\Temp\ccTDYpAm.s:235    .text.SDIO_CmdStructInit:00000000 SDIO_CmdStructInit
C:\Users\kreyl\AppData\Local\Temp\ccTDYpAm.s:248    .text.SDIO_GetCommandResponse:00000000 $t
C:\Users\kreyl\AppData\Local\Temp\ccTDYpAm.s:253    .text.SDIO_GetCommandResponse:00000000 SDIO_GetCommandResponse
C:\Users\kreyl\AppData\Local\Temp\ccTDYpAm.s:264    .text.SDIO_GetCommandResponse:00000008 $d
C:\Users\kreyl\AppData\Local\Temp\ccTDYpAm.s:267    .text.SDIO_GetResponse:00000000 $t
C:\Users\kreyl\AppData\Local\Temp\ccTDYpAm.s:272    .text.SDIO_GetResponse:00000000 SDIO_GetResponse
C:\Users\kreyl\AppData\Local\Temp\ccTDYpAm.s:289    .text.SDIO_GetResponse:00000014 $d
C:\Users\kreyl\AppData\Local\Temp\ccTDYpAm.s:292    .text.SDIO_DataConfig:00000000 $t
C:\Users\kreyl\AppData\Local\Temp\ccTDYpAm.s:297    .text.SDIO_DataConfig:00000000 SDIO_DataConfig
C:\Users\kreyl\AppData\Local\Temp\ccTDYpAm.s:321    .text.SDIO_DataConfig:00000028 $d
C:\Users\kreyl\AppData\Local\Temp\ccTDYpAm.s:324    .text.SDIO_DataStructInit:00000000 $t
C:\Users\kreyl\AppData\Local\Temp\ccTDYpAm.s:329    .text.SDIO_DataStructInit:00000000 SDIO_DataStructInit
C:\Users\kreyl\AppData\Local\Temp\ccTDYpAm.s:344    .text.SDIO_GetDataCounter:00000000 $t
C:\Users\kreyl\AppData\Local\Temp\ccTDYpAm.s:349    .text.SDIO_GetDataCounter:00000000 SDIO_GetDataCounter
C:\Users\kreyl\AppData\Local\Temp\ccTDYpAm.s:359    .text.SDIO_GetDataCounter:00000008 $d
C:\Users\kreyl\AppData\Local\Temp\ccTDYpAm.s:362    .text.SDIO_ReadData:00000000 $t
C:\Users\kreyl\AppData\Local\Temp\ccTDYpAm.s:367    .text.SDIO_ReadData:00000000 SDIO_ReadData
C:\Users\kreyl\AppData\Local\Temp\ccTDYpAm.s:377    .text.SDIO_ReadData:00000008 $d
C:\Users\kreyl\AppData\Local\Temp\ccTDYpAm.s:380    .text.SDIO_WriteData:00000000 $t
C:\Users\kreyl\AppData\Local\Temp\ccTDYpAm.s:385    .text.SDIO_WriteData:00000000 SDIO_WriteData
C:\Users\kreyl\AppData\Local\Temp\ccTDYpAm.s:395    .text.SDIO_WriteData:00000008 $d
C:\Users\kreyl\AppData\Local\Temp\ccTDYpAm.s:398    .text.SDIO_GetFIFOCount:00000000 $t
C:\Users\kreyl\AppData\Local\Temp\ccTDYpAm.s:403    .text.SDIO_GetFIFOCount:00000000 SDIO_GetFIFOCount
C:\Users\kreyl\AppData\Local\Temp\ccTDYpAm.s:413    .text.SDIO_GetFIFOCount:00000008 $d
C:\Users\kreyl\AppData\Local\Temp\ccTDYpAm.s:416    .text.SDIO_StartSDIOReadWait:00000000 $t
C:\Users\kreyl\AppData\Local\Temp\ccTDYpAm.s:421    .text.SDIO_StartSDIOReadWait:00000000 SDIO_StartSDIOReadWait
C:\Users\kreyl\AppData\Local\Temp\ccTDYpAm.s:431    .text.SDIO_StartSDIOReadWait:00000008 $d
C:\Users\kreyl\AppData\Local\Temp\ccTDYpAm.s:434    .text.SDIO_StopSDIOReadWait:00000000 $t
C:\Users\kreyl\AppData\Local\Temp\ccTDYpAm.s:439    .text.SDIO_StopSDIOReadWait:00000000 SDIO_StopSDIOReadWait
C:\Users\kreyl\AppData\Local\Temp\ccTDYpAm.s:449    .text.SDIO_StopSDIOReadWait:00000008 $d
C:\Users\kreyl\AppData\Local\Temp\ccTDYpAm.s:452    .text.SDIO_SetSDIOReadWaitMode:00000000 $t
C:\Users\kreyl\AppData\Local\Temp\ccTDYpAm.s:457    .text.SDIO_SetSDIOReadWaitMode:00000000 SDIO_SetSDIOReadWaitMode
C:\Users\kreyl\AppData\Local\Temp\ccTDYpAm.s:467    .text.SDIO_SetSDIOReadWaitMode:00000008 $d
C:\Users\kreyl\AppData\Local\Temp\ccTDYpAm.s:470    .text.SDIO_SetSDIOOperation:00000000 $t
C:\Users\kreyl\AppData\Local\Temp\ccTDYpAm.s:475    .text.SDIO_SetSDIOOperation:00000000 SDIO_SetSDIOOperation
C:\Users\kreyl\AppData\Local\Temp\ccTDYpAm.s:485    .text.SDIO_SetSDIOOperation:00000008 $d
C:\Users\kreyl\AppData\Local\Temp\ccTDYpAm.s:488    .text.SDIO_SendSDIOSuspendCmd:00000000 $t
C:\Users\kreyl\AppData\Local\Temp\ccTDYpAm.s:493    .text.SDIO_SendSDIOSuspendCmd:00000000 SDIO_SendSDIOSuspendCmd
C:\Users\kreyl\AppData\Local\Temp\ccTDYpAm.s:503    .text.SDIO_SendSDIOSuspendCmd:00000008 $d
C:\Users\kreyl\AppData\Local\Temp\ccTDYpAm.s:506    .text.SDIO_CommandCompletionCmd:00000000 $t
C:\Users\kreyl\AppData\Local\Temp\ccTDYpAm.s:511    .text.SDIO_CommandCompletionCmd:00000000 SDIO_CommandCompletionCmd
C:\Users\kreyl\AppData\Local\Temp\ccTDYpAm.s:521    .text.SDIO_CommandCompletionCmd:00000008 $d
C:\Users\kreyl\AppData\Local\Temp\ccTDYpAm.s:524    .text.SDIO_CEATAITCmd:00000000 $t
C:\Users\kreyl\AppData\Local\Temp\ccTDYpAm.s:529    .text.SDIO_CEATAITCmd:00000000 SDIO_CEATAITCmd
C:\Users\kreyl\AppData\Local\Temp\ccTDYpAm.s:541    .text.SDIO_CEATAITCmd:00000010 $d
C:\Users\kreyl\AppData\Local\Temp\ccTDYpAm.s:544    .text.SDIO_SendCEATACmd:00000000 $t
C:\Users\kreyl\AppData\Local\Temp\ccTDYpAm.s:549    .text.SDIO_SendCEATACmd:00000000 SDIO_SendCEATACmd
C:\Users\kreyl\AppData\Local\Temp\ccTDYpAm.s:559    .text.SDIO_SendCEATACmd:00000008 $d
C:\Users\kreyl\AppData\Local\Temp\ccTDYpAm.s:562    .text.SDIO_GetFlagStatus:00000000 $t
C:\Users\kreyl\AppData\Local\Temp\ccTDYpAm.s:567    .text.SDIO_GetFlagStatus:00000000 SDIO_GetFlagStatus
C:\Users\kreyl\AppData\Local\Temp\ccTDYpAm.s:581    .text.SDIO_GetFlagStatus:00000010 $d
C:\Users\kreyl\AppData\Local\Temp\ccTDYpAm.s:584    .text.SDIO_ClearFlag:00000000 $t
C:\Users\kreyl\AppData\Local\Temp\ccTDYpAm.s:589    .text.SDIO_ClearFlag:00000000 SDIO_ClearFlag
C:\Users\kreyl\AppData\Local\Temp\ccTDYpAm.s:599    .text.SDIO_ClearFlag:00000008 $d
C:\Users\kreyl\AppData\Local\Temp\ccTDYpAm.s:602    .text.SDIO_GetITStatus:00000000 $t
C:\Users\kreyl\AppData\Local\Temp\ccTDYpAm.s:607    .text.SDIO_GetITStatus:00000000 SDIO_GetITStatus
C:\Users\kreyl\AppData\Local\Temp\ccTDYpAm.s:621    .text.SDIO_GetITStatus:00000010 $d
C:\Users\kreyl\AppData\Local\Temp\ccTDYpAm.s:624    .text.SDIO_ClearITPendingBit:00000000 $t
C:\Users\kreyl\AppData\Local\Temp\ccTDYpAm.s:629    .text.SDIO_ClearITPendingBit:00000000 SDIO_ClearITPendingBit
C:\Users\kreyl\AppData\Local\Temp\ccTDYpAm.s:639    .text.SDIO_ClearITPendingBit:00000008 $d

NO UNDEFINED SYMBOLS
