   1              		.syntax unified
   2              		.cpu cortex-m3
   3              		.fpu softvfp
   4              		.eabi_attribute 20, 1
   5              		.eabi_attribute 21, 1
   6              		.eabi_attribute 23, 3
   7              		.eabi_attribute 24, 1
   8              		.eabi_attribute 25, 1
   9              		.eabi_attribute 26, 1
  10              		.eabi_attribute 30, 4
  11              		.eabi_attribute 18, 4
  12              		.thumb
  13              		.file	"main.cpp"
  14              		.section	.text._Z9Event_Kbdv,"ax",%progbits
  15              		.align	1
  16              		.global	_Z9Event_Kbdv
  17              		.thumb
  18              		.thumb_func
  20              	_Z9Event_Kbdv:
  21              		@ args = 0, pretend = 0, frame = 0
  22              		@ frame_needed = 0, uses_anonymous_args = 0
  23 0000 214B     		ldr	r3, .L9
  24 0002 70B5     		push	{r4, r5, r6, lr}
  25 0004 1B7B     		ldrb	r3, [r3, #12]	@ zero_extendqisi2
  26 0006 002B     		cmp	r3, #0
  27 0008 3CD1     		bne	.L1
  28 000a 204B     		ldr	r3, .L9+4
  29 000c 1C79     		ldrb	r4, [r3, #4]	@ zero_extendqisi2
  30 000e 0C2C     		cmp	r4, #12
  31 0010 08BF     		it	eq
  32 0012 5C79     		ldrbeq	r4, [r3, #5]	@ zero_extendqisi2
  33 0014 092C     		cmp	r4, #9
  34 0016 22D8     		bhi	.L4
  35 0018 1D4E     		ldr	r6, .L9+8
  36 001a 96F84F30 		ldrb	r3, [r6, #79]	@ zero_extendqisi2
  37 001e 002B     		cmp	r3, #0
  38 0020 30D0     		beq	.L1
  39 0022 194D     		ldr	r5, .L9
  40 0024 1B48     		ldr	r0, .L9+12
  41 0026 3146     		mov	r1, r6
  42 0028 FFF7FEFF 		bl	_ZN7Sound_t4PlayEPKc
  43 002c EB7A     		ldrb	r3, [r5, #11]	@ zero_extendqisi2
  44 002e 3034     		adds	r4, r4, #48
  45 0030 EA18     		adds	r2, r5, r3
  46 0032 1471     		strb	r4, [r2, #4]
  47 0034 0133     		adds	r3, r3, #1
  48 0036 96F84F20 		ldrb	r2, [r6, #79]	@ zero_extendqisi2
  49 003a DBB2     		uxtb	r3, r3
  50 003c 9A42     		cmp	r2, r3
  51 003e EB72     		strb	r3, [r5, #11]
  52 0040 08D1     		bne	.L5
  53 0042 06F14100 		add	r0, r6, #65
  54 0046 291D     		adds	r1, r5, #4
  55 0048 FFF7FEFF 		bl	strcmp
  56 004c 0223     		movs	r3, #2
  57 004e 00B1     		cbz	r0, .L8
  58 0050 0123     		movs	r3, #1
  59              	.L8:
  60 0052 2B73     		strb	r3, [r5, #12]
  61              	.L5:
  62 0054 104B     		ldr	r3, .L9+16
  63 0056 1A68     		ldr	r2, [r3, #0]
  64 0058 0B4B     		ldr	r3, .L9
  65 005a 1A60     		str	r2, [r3, #0]
  66 005c 70BD     		pop	{r4, r5, r6, pc}
  67              	.L4:
  68 005e 0A2C     		cmp	r4, #10
  69 0060 07D1     		bne	.L7
  70 0062 0D4B     		ldr	r3, .L9+16
  71 0064 084A     		ldr	r2, .L9
  72 0066 1B68     		ldr	r3, [r3, #0]
  73 0068 A3F53A63 		sub	r3, r3, #2976
  74 006c 1E3B     		subs	r3, r3, #30
  75 006e 1360     		str	r3, [r2, #0]
  76 0070 70BD     		pop	{r4, r5, r6, pc}
  77              	.L7:
  78 0072 0B2C     		cmp	r4, #11
  79 0074 06D1     		bne	.L1
  80 0076 064B     		ldr	r3, .L9+8
  81 0078 93F84F30 		ldrb	r3, [r3, #79]	@ zero_extendqisi2
  82 007c 13B9     		cbnz	r3, .L1
  83 007e 024B     		ldr	r3, .L9
  84 0080 0222     		movs	r2, #2
  85 0082 1A73     		strb	r2, [r3, #12]
  86              	.L1:
  87 0084 70BD     		pop	{r4, r5, r6, pc}
  88              	.L10:
  89 0086 00BF     		.align	2
  90              	.L9:
  91 0088 00000000 		.word	.LANCHOR0
  92 008c 00000000 		.word	Keys
  93 0090 00000000 		.word	.LANCHOR1
  94 0094 00000000 		.word	ESnd
  95 0098 00000000 		.word	Delay
  97              		.section	.text._ZN10Settings_t4ReadEv,"ax",%progbits
  98              		.align	1
  99              		.global	_ZN10Settings_t4ReadEv
 100              		.thumb
 101              		.thumb_func
 103              	_ZN10Settings_t4ReadEv:
 104              		@ args = 0, pretend = 0, frame = 0
 105              		@ frame_needed = 0, uses_anonymous_args = 0
 106 0000 37B5     		push	{r0, r1, r2, r4, r5, lr}
 107 0002 284C     		ldr	r4, .L20
 108 0004 0D25     		movs	r5, #13
 109 0006 2848     		ldr	r0, .L20+4
 110 0008 2849     		ldr	r1, .L20+8
 111 000a 294A     		ldr	r2, .L20+12
 112 000c 2346     		mov	r3, r4
 113 000e 0095     		str	r5, [sp, #0]
 114 0010 FFF7FEFF 		bl	_Z10ReadStringPKcS0_S0_Pcm
 115 0014 0028     		cmp	r0, #0
 116 0016 44D0     		beq	.L12
 117 0018 2348     		ldr	r0, .L20+4
 118 001a 2649     		ldr	r1, .L20+16
 119 001c 244A     		ldr	r2, .L20+12
 120 001e 6319     		adds	r3, r4, r5
 121 0020 0095     		str	r5, [sp, #0]
 122 0022 FFF7FEFF 		bl	_Z10ReadStringPKcS0_S0_Pcm
 123 0026 0028     		cmp	r0, #0
 124 0028 3BD0     		beq	.L12
 125 002a 1F48     		ldr	r0, .L20+4
 126 002c 2249     		ldr	r1, .L20+20
 127 002e 204A     		ldr	r2, .L20+12
 128 0030 04F11A03 		add	r3, r4, #26
 129 0034 0095     		str	r5, [sp, #0]
 130 0036 FFF7FEFF 		bl	_Z10ReadStringPKcS0_S0_Pcm
 131 003a 0028     		cmp	r0, #0
 132 003c 31D0     		beq	.L12
 133 003e 1A48     		ldr	r0, .L20+4
 134 0040 1E49     		ldr	r1, .L20+24
 135 0042 1B4A     		ldr	r2, .L20+12
 136 0044 04F12703 		add	r3, r4, #39
 137 0048 0095     		str	r5, [sp, #0]
 138 004a FFF7FEFF 		bl	_Z10ReadStringPKcS0_S0_Pcm
 139 004e 40B3     		cbz	r0, .L12
 140 0050 1548     		ldr	r0, .L20+4
 141 0052 1B49     		ldr	r1, .L20+28
 142 0054 164A     		ldr	r2, .L20+12
 143 0056 04F13403 		add	r3, r4, #52
 144 005a 0095     		str	r5, [sp, #0]
 145 005c FFF7FEFF 		bl	_Z10ReadStringPKcS0_S0_Pcm
 146 0060 F8B1     		cbz	r0, .L12
 147 0062 1848     		ldr	r0, .L20+32
 148 0064 0625     		movs	r5, #6
 149 0066 0146     		mov	r1, r0
 150 0068 114A     		ldr	r2, .L20+12
 151 006a 04F14103 		add	r3, r4, #65
 152 006e 0095     		str	r5, [sp, #0]
 153 0070 FFF7FEFF 		bl	_Z10ReadStringPKcS0_S0_Pcm
 154 0074 A8B1     		cbz	r0, .L12
 155 0076 04F14100 		add	r0, r4, #65
 156 007a FFF7FEFF 		bl	strlen
 157 007e 1249     		ldr	r1, .L20+36
 158 0080 84F84F00 		strb	r0, [r4, #79]
 159 0084 0A4A     		ldr	r2, .L20+12
 160 0086 0F48     		ldr	r0, .L20+32
 161 0088 04F14803 		add	r3, r4, #72
 162 008c 0095     		str	r5, [sp, #0]
 163 008e FFF7FEFF 		bl	_Z10ReadStringPKcS0_S0_Pcm
 164 0092 30B1     		cbz	r0, .L12
 165 0094 04F14800 		add	r0, r4, #72
 166 0098 FFF7FEFF 		bl	strlen
 167 009c 84F85000 		strb	r0, [r4, #80]
 168 00a0 0120     		movs	r0, #1
 169              	.L12:
 170 00a2 3EBD     		pop	{r1, r2, r3, r4, r5, pc}
 171              	.L21:
 172              		.align	2
 173              	.L20:
 174 00a4 00000000 		.word	.LANCHOR1
 175 00a8 00000000 		.word	.LC0
 176 00ac 06000000 		.word	.LC1
 177 00b0 0E000000 		.word	.LC2
 178 00b4 17000000 		.word	.LC3
 179 00b8 1F000000 		.word	.LC4
 180 00bc 29000000 		.word	.LC5
 181 00c0 2E000000 		.word	.LC6
 182 00c4 34000000 		.word	.LC7
 183 00c8 39000000 		.word	.LC8
 185              		.section	.text._Z11GeneralInitv,"ax",%progbits
 186              		.align	1
 187              		.global	_Z11GeneralInitv
 188              		.thumb
 189              		.thumb_func
 191              	_Z11GeneralInitv:
 192              		@ args = 0, pretend = 0, frame = 0
 193              		@ frame_needed = 0, uses_anonymous_args = 0
 194 0000 10B5     		push	{r4, lr}
 195 0002 FFF7FEFF 		bl	UART_Init
 196 0006 0121     		movs	r1, #1
 197 0008 1448     		ldr	r0, .L26
 198 000a FFF7FEFF 		bl	GPIO_PinRemapConfig
 199 000e 144C     		ldr	r4, .L26+4
 200 0010 4FF48060 		mov	r0, #1024
 201 0014 FFF7FEFF 		bl	NVIC_PriorityGroupConfig
 202 0018 1248     		ldr	r0, .L26+8
 203 001a FFF7FEFF 		bl	_ZN7Delay_t4InitEv
 204 001e 2046     		mov	r0, r4
 205 0020 FFF7FEFF 		bl	_ZN6Keys_t4InitEv
 206 0024 104B     		ldr	r3, .L26+12
 207 0026 1148     		ldr	r0, .L26+16
 208 0028 A360     		str	r3, [r4, #8]
 209 002a E360     		str	r3, [r4, #12]
 210 002c FFF7FEFF 		bl	_ZN4VS_t4InitEv
 211 0030 0F48     		ldr	r0, .L26+20
 212 0032 FFF7FEFF 		bl	_ZN7Sound_t4InitEv
 213 0036 0F48     		ldr	r0, .L26+24
 214 0038 FFF7FEFF 		bl	klPrintf
 215 003c 0020     		movs	r0, #0
 216 003e 0E49     		ldr	r1, .L26+28
 217 0040 FFF7FEFF 		bl	f_mount
 218 0044 0D48     		ldr	r0, .L26+32
 219 0046 FFF7FEFF 		bl	_ZN10Settings_t4ReadEv
 220 004a 00B9     		cbnz	r0, .L23
 221              	.L25:
 222 004c FEE7     		b	.L25
 223              	.L23:
 224 004e 0848     		ldr	r0, .L26+20
 225 0050 0B49     		ldr	r1, .L26+36
 226 0052 BDE81040 		pop	{r4, lr}
 227 0056 FFF7FEBF 		b	_ZN7Sound_t4PlayEPKc
 228              	.L27:
 229 005a 00BF     		.align	2
 230              	.L26:
 231 005c 00023000 		.word	3146240
 232 0060 00000000 		.word	Keys
 233 0064 00000000 		.word	Delay
 234 0068 00000000 		.word	_Z9Event_Kbdv
 235 006c 00000000 		.word	Vs
 236 0070 00000000 		.word	ESnd
 237 0074 45000000 		.word	.LC9
 238 0078 70000000 		.word	SD+112
 239 007c 00000000 		.word	.LANCHOR1
 240 0080 51000000 		.word	.LC10
 242              		.section	.text._Z10Event_Openv,"ax",%progbits
 243              		.align	1
 244              		.global	_Z10Event_Openv
 245              		.thumb
 246              		.thumb_func
 248              	_Z10Event_Openv:
 249              		@ args = 0, pretend = 0, frame = 0
 250              		@ frame_needed = 0, uses_anonymous_args = 0
 251              		@ link register save eliminated.
 252 0000 0148     		ldr	r0, .L29
 253 0002 0249     		ldr	r1, .L29+4
 254 0004 FFF7FEBF 		b	_ZN7Sound_t4PlayEPKc
 255              	.L30:
 256              		.align	2
 257              	.L29:
 258 0008 00000000 		.word	ESnd
 259 000c 27000000 		.word	.LANCHOR1+39
 261              		.section	.text._ZN11Codecheck_t4TaskEv,"ax",%progbits
 262              		.align	1
 263              		.global	_ZN11Codecheck_t4TaskEv
 264              		.thumb
 265              		.thumb_func
 267              	_ZN11Codecheck_t4TaskEv:
 268              		@ args = 0, pretend = 0, frame = 0
 269              		@ frame_needed = 0, uses_anonymous_args = 0
 270 0000 38B5     		push	{r3, r4, r5, lr}
 271 0002 184D     		ldr	r5, .L38
 272 0004 0446     		mov	r4, r0
 273 0006 95F82836 		ldrb	r3, [r5, #1576]	@ zero_extendqisi2
 274 000a 012B     		cmp	r3, #1
 275 000c 28D0     		beq	.L31
 276 000e 164B     		ldr	r3, .L38+4
 277 0010 1B7B     		ldrb	r3, [r3, #12]	@ zero_extendqisi2
 278 0012 012B     		cmp	r3, #1
 279 0014 14D0     		beq	.L34
 280 0016 02D3     		bcc	.L33
 281 0018 022B     		cmp	r3, #2
 282 001a 21D1     		bne	.L31
 283 001c 19E0     		b	.L37
 284              	.L33:
 285 001e C37A     		ldrb	r3, [r0, #11]	@ zero_extendqisi2
 286 0020 002B     		cmp	r3, #0
 287 0022 1DD0     		beq	.L31
 288 0024 1148     		ldr	r0, .L38+8
 289 0026 2146     		mov	r1, r4
 290 0028 40F6BE32 		movw	r2, #3006
 291 002c FFF7FEFF 		bl	_ZN7Delay_t7ElapsedEPmm
 292 0030 0028     		cmp	r0, #0
 293 0032 15D0     		beq	.L31
 294 0034 0023     		movs	r3, #0
 295 0036 E372     		strb	r3, [r4, #11]
 296 0038 2373     		strb	r3, [r4, #12]
 297 003a 2846     		mov	r0, r5
 298 003c 0C49     		ldr	r1, .L38+12
 299 003e 04E0     		b	.L36
 300              	.L34:
 301 0040 0023     		movs	r3, #0
 302 0042 0C49     		ldr	r1, .L38+16
 303 0044 C372     		strb	r3, [r0, #11]
 304 0046 0373     		strb	r3, [r0, #12]
 305 0048 2846     		mov	r0, r5
 306              	.L36:
 307 004a BDE83840 		pop	{r3, r4, r5, lr}
 308 004e FFF7FEBF 		b	_ZN7Sound_t4PlayEPKc
 309              	.L37:
 310 0052 0023     		movs	r3, #0
 311 0054 C372     		strb	r3, [r0, #11]
 312 0056 0373     		strb	r3, [r0, #12]
 313 0058 BDE83840 		pop	{r3, r4, r5, lr}
 314 005c FFF7FEBF 		b	_Z10Event_Openv
 315              	.L31:
 316 0060 38BD     		pop	{r3, r4, r5, pc}
 317              	.L39:
 318 0062 00BF     		.align	2
 319              	.L38:
 320 0064 00000000 		.word	ESnd
 321 0068 00000000 		.word	.LANCHOR0
 322 006c 00000000 		.word	Delay
 323 0070 0D000000 		.word	.LANCHOR1+13
 324 0074 1A000000 		.word	.LANCHOR1+26
 326              		.section	.text.startup.main,"ax",%progbits
 327              		.align	1
 328              		.global	main
 329              		.thumb
 330              		.thumb_func
 332              	main:
 333              		@ Volatile: function does not return.
 334              		@ args = 0, pretend = 0, frame = 0
 335              		@ frame_needed = 0, uses_anonymous_args = 0
 336 0000 08B5     		push	{r3, lr}
 337 0002 FFF7FEFF 		bl	_Z11GeneralInitv
 338              	.L41:
 339 0006 0548     		ldr	r0, .L42
 340 0008 FFF7FEFF 		bl	_ZN6Keys_t4TaskEv
 341 000c 0448     		ldr	r0, .L42+4
 342 000e FFF7FEFF 		bl	_ZN7Sound_t4TaskEv
 343 0012 0448     		ldr	r0, .L42+8
 344 0014 FFF7FEFF 		bl	_ZN11Codecheck_t4TaskEv
 345 0018 F5E7     		b	.L41
 346              	.L43:
 347 001a 00BF     		.align	2
 348              	.L42:
 349 001c 00000000 		.word	Keys
 350 0020 00000000 		.word	ESnd
 351 0024 00000000 		.word	.LANCHOR0
 353              		.section	.text._Z11Event_Closev,"ax",%progbits
 354              		.align	1
 355              		.global	_Z11Event_Closev
 356              		.thumb
 357              		.thumb_func
 359              	_Z11Event_Closev:
 360              		@ args = 0, pretend = 0, frame = 0
 361              		@ frame_needed = 0, uses_anonymous_args = 0
 362              		@ link register save eliminated.
 363 0000 0148     		ldr	r0, .L45
 364 0002 0249     		ldr	r1, .L45+4
 365 0004 FFF7FEBF 		b	_ZN7Sound_t4PlayEPKc
 366              	.L46:
 367              		.align	2
 368              	.L45:
 369 0008 00000000 		.word	ESnd
 370 000c 34000000 		.word	.LANCHOR1+52
 372              		.global	Codecheck
 373              		.global	Settings
 374              		.section	.bss.Codecheck,"aw",%nobits
 375              		.align	2
 376              		.set	.LANCHOR0,. + 0
 379              	Codecheck:
 380 0000 00000000 		.space	16
 380      00000000 
 380      00000000 
 380      00000000 
 381              		.section	.rodata.str1.1,"aMS",%progbits,1
 382              	.LC0:
 383 0000 536F756E 		.ascii	"Sound\000"
 383      6400
 384              	.LC1:
 385 0006 4B657942 		.ascii	"KeyBeep\000"
 385      65657000 
 386              	.LC2:
 387 000e 6C6F636B 		.ascii	"lock.ini\000"
 387      2E696E69 
 387      00
 388              	.LC3:
 389 0017 4B657944 		.ascii	"KeyDrop\000"
 389      726F7000 
 390              	.LC4:
 391 001f 50617373 		.ascii	"PassError\000"
 391      4572726F 
 391      7200
 392              	.LC5:
 393 0029 4F70656E 		.ascii	"Open\000"
 393      00
 394              	.LC6:
 395 002e 436C6F73 		.ascii	"Close\000"
 395      6500
 396              	.LC7:
 397 0034 436F6465 		.ascii	"Code\000"
 397      00
 398              	.LC8:
 399 0039 53657276 		.ascii	"ServiceCode\000"
 399      69636543 
 399      6F646500 
 400              	.LC9:
 401 0045 4C6F636B 		.ascii	"Lock is on\015\000"
 401      20697320 
 401      6F6E0D00 
 402              	.LC10:
 403 0051 616C6976 		.ascii	"alive.wav\000"
 403      652E7761 
 403      7600
 404              		.section	.bss.Settings,"aw",%nobits
 405              		.set	.LANCHOR1,. + 0
 408              	Settings:
 409 0000 00000000 		.space	81
 409      00000000 
 409      00000000 
 409      00000000 
 409      00000000 
 410              		.ident	"GCC: (GNU) 4.6.2"