   1              		.syntax unified
   2              		.cpu cortex-m3
   3              		.fpu softvfp
   4              		.eabi_attribute 20, 1
   5              		.eabi_attribute 21, 1
   6              		.eabi_attribute 23, 3
   7              		.eabi_attribute 24, 1
   8              		.eabi_attribute 25, 1
   9              		.eabi_attribute 26, 1
  10              		.eabi_attribute 30, 4
  11              		.eabi_attribute 18, 4
  12              		.thumb
  13              		.file	"media.cpp"
  14              		.section	.text._ZN7Sound_t4InitEv,"ax",%progbits
  15              		.align	1
  16              		.global	_ZN7Sound_t4InitEv
  17              		.thumb
  18              		.thumb_func
  20              	_ZN7Sound_t4InitEv:
  21              		@ args = 0, pretend = 0, frame = 0
  22              		@ frame_needed = 0, uses_anonymous_args = 0
  23              		@ link register save eliminated.
  24 0000 0023     		movs	r3, #0
  25 0002 80F82836 		strb	r3, [r0, #1576]
  26 0006 7047     		bx	lr
  28              		.section	.text._ZN7Sound_t7StopNowEv,"ax",%progbits
  29              		.align	1
  30              		.global	_ZN7Sound_t7StopNowEv
  31              		.thumb
  32              		.thumb_func
  34              	_ZN7Sound_t7StopNowEv:
  35              		@ args = 0, pretend = 0, frame = 0
  36              		@ frame_needed = 0, uses_anonymous_args = 0
  37 0000 38B5     		push	{r3, r4, r5, lr}
  38 0002 084D     		ldr	r5, .L3
  39 0004 0446     		mov	r4, r0
  40 0006 2846     		mov	r0, r5
  41 0008 FFF7FEFF 		bl	_ZN4VS_t12AmplifierOffEv
  42 000c 0D21     		movs	r1, #13
  43 000e 8022     		movs	r2, #128
  44 0010 2846     		mov	r0, r5
  45 0012 FFF7FEFF 		bl	_ZN4VS_t8CmdWriteEht
  46 0016 2046     		mov	r0, r4
  47 0018 FFF7FEFF 		bl	f_close
  48 001c 0023     		movs	r3, #0
  49 001e 84F82836 		strb	r3, [r4, #1576]
  50 0022 38BD     		pop	{r3, r4, r5, pc}
  51              	.L4:
  52              		.align	2
  53              	.L3:
  54 0024 00000000 		.word	Vs
  56              		.section	.text._ZN7Sound_t10UploadDataEv,"ax",%progbits
  57              		.align	1
  58              		.global	_ZN7Sound_t10UploadDataEv
  59              		.thumb
  60              		.thumb_func
  62              	_ZN7Sound_t10UploadDataEv:
  63              		@ args = 0, pretend = 0, frame = 0
  64              		@ frame_needed = 0, uses_anonymous_args = 0
  65 0000 D0F82416 		ldr	r1, [r0, #1572]
  66 0004 10B5     		push	{r4, lr}
  67 0006 B1F80022 		ldrh	r2, [r1, #512]
  68 000a 0446     		mov	r4, r0
  69 000c 1148     		ldr	r0, .L9
  70 000e FFF7FEFF 		bl	_ZN4VS_t9WriteDataEPht
  71 0012 A268     		ldr	r2, [r4, #8]
  72 0014 E368     		ldr	r3, [r4, #12]
  73 0016 9A42     		cmp	r2, r3
  74 0018 15D2     		bcs	.L6
  75 001a D4F82436 		ldr	r3, [r4, #1572]
  76 001e 04F50771 		add	r1, r4, #540
  77 0022 8B42     		cmp	r3, r1
  78 0024 08BF     		it	eq
  79 0026 04F58461 		addeq	r1, r4, #1056
  80 002a C4F82416 		str	r1, [r4, #1572]
  81 002e 01F50073 		add	r3, r1, #512
  82 0032 2046     		mov	r0, r4
  83 0034 4FF40072 		mov	r2, #512
  84 0038 FFF7FEFF 		bl	f_read
  85 003c 0146     		mov	r1, r0
  86 003e 38B1     		cbz	r0, .L5
  87 0040 0548     		ldr	r0, .L9+4
  88 0042 FFF7FEFF 		bl	klPrintf
  89              	.L6:
  90 0046 2046     		mov	r0, r4
  91 0048 BDE81040 		pop	{r4, lr}
  92 004c FFF7FEBF 		b	_ZN7Sound_t7StopNowEv
  93              	.L5:
  94 0050 10BD     		pop	{r4, pc}
  95              	.L10:
  96 0052 00BF     		.align	2
  97              	.L9:
  98 0054 00000000 		.word	Vs
  99 0058 00000000 		.word	.LC0
 101              		.section	.text._ZN7Sound_t4PlayEPKc,"ax",%progbits
 102              		.align	1
 103              		.global	_ZN7Sound_t4PlayEPKc
 104              		.thumb
 105              		.thumb_func
 107              	_ZN7Sound_t4PlayEPKc:
 108              		@ args = 0, pretend = 0, frame = 0
 109              		@ frame_needed = 0, uses_anonymous_args = 0
 110 0000 90F82836 		ldrb	r3, [r0, #1576]	@ zero_extendqisi2
 111 0004 70B5     		push	{r4, r5, r6, lr}
 112 0006 012B     		cmp	r3, #1
 113 0008 0446     		mov	r4, r0
 114 000a 0E46     		mov	r6, r1
 115 000c 01D1     		bne	.L12
 116 000e FFF7FEFF 		bl	_ZN7Sound_t7StopNowEv
 117              	.L12:
 118 0012 2046     		mov	r0, r4
 119 0014 3146     		mov	r1, r6
 120 0016 0122     		movs	r2, #1
 121 0018 FFF7FEFF 		bl	f_open
 122 001c 0546     		mov	r5, r0
 123 001e 48B1     		cbz	r0, .L13
 124 0020 0428     		cmp	r0, #4
 125 0022 0BBF     		itete	eq
 126 0024 1A48     		ldreq	r0, .L19
 127 0026 1B48     		ldrne	r0, .L19+4
 128 0028 3146     		moveq	r1, r6
 129 002a 2946     		movne	r1, r5
 130 002c BDE87040 		pop	{r4, r5, r6, lr}
 131 0030 FFF7FEBF 		b	klPrintf
 132              	.L13:
 133 0034 E368     		ldr	r3, [r4, #12]
 134 0036 3BB9     		cbnz	r3, .L15
 135 0038 2046     		mov	r0, r4
 136 003a FFF7FEFF 		bl	f_close
 137 003e 1648     		ldr	r0, .L19+8
 138 0040 BDE87040 		pop	{r4, r5, r6, lr}
 139 0044 FFF7FEBF 		b	klPrintf
 140              	.L15:
 141 0048 04F50776 		add	r6, r4, #540
 142 004c 04F58263 		add	r3, r4, #1040
 143 0050 3146     		mov	r1, r6
 144 0052 0C33     		adds	r3, r3, #12
 145 0054 2046     		mov	r0, r4
 146 0056 4FF40072 		mov	r2, #512
 147 005a FFF7FEFF 		bl	f_read
 148 005e 0146     		mov	r1, r0
 149 0060 28B1     		cbz	r0, .L16
 150 0062 0E48     		ldr	r0, .L19+12
 151 0064 FFF7FEFF 		bl	klPrintf
 152 0068 84F82856 		strb	r5, [r4, #1576]
 153 006c 70BD     		pop	{r4, r5, r6, pc}
 154              	.L16:
 155 006e C4F82466 		str	r6, [r4, #1572]
 156 0072 0B48     		ldr	r0, .L19+16
 157 0074 FFF7FEFF 		bl	_ZN4VS_t6EnableEv
 158 0078 0948     		ldr	r0, .L19+16
 159 007a FFF7FEFF 		bl	_ZN4VS_t11AmplifierOnEv
 160 007e 0123     		movs	r3, #1
 161 0080 2046     		mov	r0, r4
 162 0082 84F82836 		strb	r3, [r4, #1576]
 163 0086 BDE87040 		pop	{r4, r5, r6, lr}
 164 008a FFF7FEBF 		b	_ZN7Sound_t10UploadDataEv
 165              	.L20:
 166 008e 00BF     		.align	2
 167              	.L19:
 168 0090 14000000 		.word	.LC1
 169 0094 28000000 		.word	.LC2
 170 0098 3B000000 		.word	.LC3
 171 009c 47000000 		.word	.LC4
 172 00a0 00000000 		.word	Vs
 174              		.section	.text._ZN7Sound_t4TaskEv,"ax",%progbits
 175              		.align	1
 176              		.global	_ZN7Sound_t4TaskEv
 177              		.thumb
 178              		.thumb_func
 180              	_ZN7Sound_t4TaskEv:
 181              		@ args = 0, pretend = 0, frame = 0
 182              		@ frame_needed = 0, uses_anonymous_args = 0
 183 0000 90F82836 		ldrb	r3, [r0, #1576]	@ zero_extendqisi2
 184 0004 10B5     		push	{r4, lr}
 185 0006 012B     		cmp	r3, #1
 186 0008 0446     		mov	r4, r0
 187 000a 02D0     		beq	.L23
 188 000c 022B     		cmp	r3, #2
 189 000e 12D1     		bne	.L21
 190 0010 08E0     		b	.L25
 191              	.L23:
 192 0012 0948     		ldr	r0, .L26
 193 0014 FFF7FEFF 		bl	_ZN4VS_t6IsBusyEv
 194 0018 68B9     		cbnz	r0, .L21
 195 001a 2046     		mov	r0, r4
 196 001c BDE81040 		pop	{r4, lr}
 197 0020 FFF7FEBF 		b	_ZN7Sound_t10UploadDataEv
 198              	.L25:
 199 0024 0448     		ldr	r0, .L26
 200 0026 FFF7FEFF 		bl	_ZN4VS_t6IsBusyEv
 201 002a 20B9     		cbnz	r0, .L21
 202 002c 2046     		mov	r0, r4
 203 002e BDE81040 		pop	{r4, lr}
 204 0032 FFF7FEBF 		b	_ZN7Sound_t7StopNowEv
 205              	.L21:
 206 0036 10BD     		pop	{r4, pc}
 207              	.L27:
 208              		.align	2
 209              	.L26:
 210 0038 00000000 		.word	Vs
 212              		.global	ESnd
 213              		.section	.rodata.str1.1,"aMS",%progbits,1
 214              	.LC0:
 215 0000 52656164 		.ascii	"ReadFileU error: %u\000"
 215      46696C65 
 215      55206572 
 215      726F723A 
 215      20257500 
 216              	.LC1:
 217 0014 25533A20 		.ascii	"%S: file not found\015\000"
 217      66696C65 
 217      206E6F74 
 217      20666F75 
 217      6E640D00 
 218              	.LC2:
 219 0028 4F70656E 		.ascii	"OpenFile error: %u\000"
 219      46696C65 
 219      20657272 
 219      6F723A20 
 219      257500
 220              	.LC3:
 221 003b 456D7074 		.ascii	"Empty file\015\000"
 221      79206669 
 221      6C650D00 
 222              	.LC4:
 223 0047 52656164 		.ascii	"ReadFile 1 error: %u\000"
 223      46696C65 
 223      20312065 
 223      72726F72 
 223      3A202575 
 224              		.section	.bss.ESnd,"aw",%nobits
 225              		.align	2
 228              	ESnd:
 229 0000 00000000 		.space	1580
 229      00000000 
 229      00000000 
 229      00000000 
 229      00000000 
 230              		.ident	"GCC: (GNU) 4.6.2"