   1              		.syntax unified
   2              		.cpu cortex-m3
   3              		.fpu softvfp
   4              		.eabi_attribute 20, 1
   5              		.eabi_attribute 21, 1
   6              		.eabi_attribute 23, 3
   7              		.eabi_attribute 24, 1
   8              		.eabi_attribute 25, 1
   9              		.eabi_attribute 26, 1
  10              		.eabi_attribute 30, 4
  11              		.eabi_attribute 18, 4
  12              		.thumb
  13              		.file	"sd.cpp"
  14              		.section	.text._ZN4sd_t12LowLevelInitEv,"ax",%progbits
  15              		.align	1
  16              		.global	_ZN4sd_t12LowLevelInitEv
  17              		.thumb
  18              		.thumb_func
  20              	_ZN4sd_t12LowLevelInitEv:
  21              		@ args = 0, pretend = 0, frame = 8
  22              		@ frame_needed = 0, uses_anonymous_args = 0
  23 0000 07B5     		push	{r0, r1, r2, lr}
  24 0002 3020     		movs	r0, #48
  25 0004 0121     		movs	r1, #1
  26 0006 FFF7FEFF 		bl	RCC_APB2PeriphClockCmd
  27 000a 4FF4F853 		mov	r3, #7936	@ movhi
  28 000e ADF80430 		strh	r3, [sp, #4]	@ movhi
  29 0012 0323     		movs	r3, #3
  30 0014 8DF80630 		strb	r3, [sp, #6]
  31 0018 01A9     		add	r1, sp, #4
  32 001a 1823     		movs	r3, #24
  33 001c 0B48     		ldr	r0, .L2
  34 001e 8DF80730 		strb	r3, [sp, #7]
  35 0022 FFF7FEFF 		bl	GPIO_Init
  36 0026 0423     		movs	r3, #4
  37 0028 01A9     		add	r1, sp, #4
  38 002a 0948     		ldr	r0, .L2+4
  39 002c ADF80430 		strh	r3, [sp, #4]	@ movhi
  40 0030 FFF7FEFF 		bl	GPIO_Init
  41 0034 0121     		movs	r1, #1
  42 0036 4FF48060 		mov	r0, #1024
  43 003a FFF7FEFF 		bl	RCC_AHBPeriphClockCmd
  44 003e 0220     		movs	r0, #2
  45 0040 0121     		movs	r1, #1
  46 0042 FFF7FEFF 		bl	RCC_AHBPeriphClockCmd
  47 0046 FFF7FEFF 		bl	SDIO_DeInit
  48 004a 0EBD     		pop	{r1, r2, r3, pc}
  49              	.L3:
  50              		.align	2
  51              	.L2:
  52 004c 00100140 		.word	1073811456
  53 0050 00140140 		.word	1073812480
  55              		.section	.text._ZN4sd_t8InitSDIOEhm,"ax",%progbits
  56              		.align	1
  57              		.global	_ZN4sd_t8InitSDIOEhm
  58              		.thumb
  59              		.thumb_func
  61              	_ZN4sd_t8InitSDIOEhm:
  62              		@ args = 0, pretend = 0, frame = 24
  63              		@ frame_needed = 0, uses_anonymous_args = 0
  64 0000 7FB5     		push	{r0, r1, r2, r3, r4, r5, r6, lr}
  65 0002 0023     		movs	r3, #0
  66 0004 6846     		mov	r0, sp
  67 0006 8DF81410 		strb	r1, [sp, #20]
  68 000a 0093     		str	r3, [sp, #0]
  69 000c 0193     		str	r3, [sp, #4]
  70 000e 0293     		str	r3, [sp, #8]
  71 0010 0392     		str	r2, [sp, #12]
  72 0012 0493     		str	r3, [sp, #16]
  73 0014 FFF7FEFF 		bl	SDIO_Init
  74 0018 07B0     		add	sp, sp, #28
  75 001a 00BD     		pop	{pc}
  77              		.section	.text._ZN4sd_t11GetCardInfoEv,"ax",%progbits
  78              		.align	1
  79              		.global	_ZN4sd_t11GetCardInfoEv
  80              		.thumb
  81              		.thumb_func
  83              	_ZN4sd_t11GetCardInfoEv:
  84              		@ args = 0, pretend = 0, frame = 0
  85              		@ frame_needed = 0, uses_anonymous_args = 0
  86 0000 036E     		ldr	r3, [r0, #96]
  87 0002 30B5     		push	{r4, r5, lr}
  88 0004 1A0E     		lsrs	r2, r3, #24
  89 0006 9109     		lsrs	r1, r2, #6
  90 0008 0170     		strb	r1, [r0, #0]
  91 000a C2F38301 		ubfx	r1, r2, #2, #4
  92 000e 02F00302 		and	r2, r2, #3
  93 0012 4170     		strb	r1, [r0, #1]
  94 0014 8270     		strb	r2, [r0, #2]
  95 0016 C3F30742 		ubfx	r2, r3, #16, #8
  96 001a C270     		strb	r2, [r0, #3]
  97 001c C3F30722 		ubfx	r2, r3, #8, #8
  98 0020 0271     		strb	r2, [r0, #4]
  99 0022 426E     		ldr	r2, [r0, #100]
 100 0024 DBB2     		uxtb	r3, r3
 101 0026 4371     		strb	r3, [r0, #5]
 102 0028 130E     		lsrs	r3, r2, #24
 103 002a 1B01     		lsls	r3, r3, #4
 104 002c C380     		strh	r3, [r0, #6]	@ movhi
 105 002e C188     		ldrh	r1, [r0, #6]
 106 0030 C2F30743 		ubfx	r3, r2, #16, #8
 107 0034 89B2     		uxth	r1, r1
 108 0036 41EA1311 		orr	r1, r1, r3, lsr #4
 109 003a 03F00F03 		and	r3, r3, #15
 110 003e C180     		strh	r1, [r0, #6]	@ movhi
 111 0040 0372     		strb	r3, [r0, #8]
 112 0042 C2F30723 		ubfx	r3, r2, #8, #8
 113 0046 D909     		lsrs	r1, r3, #7
 114 0048 4172     		strb	r1, [r0, #9]
 115 004a C3F38011 		ubfx	r1, r3, #6, #1
 116 004e 8172     		strb	r1, [r0, #10]
 117 0050 C3F34011 		ubfx	r1, r3, #5, #1
 118 0054 C172     		strb	r1, [r0, #11]
 119 0056 C3F30011 		ubfx	r1, r3, #4, #1
 120 005a 0173     		strb	r1, [r0, #12]
 121 005c 0021     		movs	r1, #0
 122 005e 4173     		strb	r1, [r0, #13]
 123 0060 90F84E10 		ldrb	r1, [r0, #78]	@ zero_extendqisi2
 124 0064 0129     		cmp	r1, #1
 125 0066 33D8     		bhi	.L6
 126 0068 03F00303 		and	r3, r3, #3
 127 006c 9B02     		lsls	r3, r3, #10
 128 006e 0361     		str	r3, [r0, #16]
 129 0070 0369     		ldr	r3, [r0, #16]
 130 0072 D2B2     		uxtb	r2, r2
 131 0074 43EA8202 		orr	r2, r3, r2, lsl #2
 132 0078 0261     		str	r2, [r0, #16]
 133 007a 836E     		ldr	r3, [r0, #104]
 134 007c 0169     		ldr	r1, [r0, #16]
 135 007e 1A0E     		lsrs	r2, r3, #24
 136 0080 41EA9211 		orr	r1, r1, r2, lsr #6
 137 0084 0161     		str	r1, [r0, #16]
 138 0086 C2F3C201 		ubfx	r1, r2, #3, #3
 139 008a 02F00702 		and	r2, r2, #7
 140 008e 0175     		strb	r1, [r0, #20]
 141 0090 4275     		strb	r2, [r0, #21]
 142 0092 C3F30742 		ubfx	r2, r3, #16, #8
 143 0096 5109     		lsrs	r1, r2, #5
 144 0098 8175     		strb	r1, [r0, #22]
 145 009a C2F38201 		ubfx	r1, r2, #2, #3
 146 009e 02F00302 		and	r2, r2, #3
 147 00a2 5200     		lsls	r2, r2, #1
 148 00a4 C175     		strb	r1, [r0, #23]
 149 00a6 0276     		strb	r2, [r0, #24]
 150 00a8 027E     		ldrb	r2, [r0, #24]	@ zero_extendqisi2
 151 00aa C3F30723 		ubfx	r3, r3, #8, #8
 152 00ae 42EAD312 		orr	r2, r2, r3, lsr #7
 153 00b2 0276     		strb	r2, [r0, #24]
 154 00b4 0469     		ldr	r4, [r0, #16]
 155 00b6 017E     		ldrb	r1, [r0, #24]	@ zero_extendqisi2
 156 00b8 0125     		movs	r5, #1
 157 00ba 027A     		ldrb	r2, [r0, #8]	@ zero_extendqisi2
 158 00bc 6419     		adds	r4, r4, r5
 159 00be 0231     		adds	r1, r1, #2
 160 00c0 15FA02F2 		lsls	r2, r5, r2
 161 00c4 14FA01F1 		lsls	r1, r4, r1
 162 00c8 8264     		str	r2, [r0, #72]
 163 00ca 4A43     		muls	r2, r1, r2
 164 00cc 4264     		str	r2, [r0, #68]
 165 00ce 19E0     		b	.L7
 166              	.L6:
 167 00d0 0229     		cmp	r1, #2
 168 00d2 17D1     		bne	.L7
 169 00d4 02F03F02 		and	r2, r2, #63
 170 00d8 1204     		lsls	r2, r2, #16
 171 00da 0261     		str	r2, [r0, #16]
 172 00dc 836E     		ldr	r3, [r0, #104]
 173 00de 0269     		ldr	r2, [r0, #16]
 174 00e0 190E     		lsrs	r1, r3, #24
 175 00e2 42EA0122 		orr	r2, r2, r1, lsl #8
 176 00e6 0261     		str	r2, [r0, #16]
 177 00e8 0269     		ldr	r2, [r0, #16]
 178 00ea C3F30741 		ubfx	r1, r3, #16, #8
 179 00ee 0A43     		orrs	r2, r2, r1
 180 00f0 0261     		str	r2, [r0, #16]
 181 00f2 0269     		ldr	r2, [r0, #16]
 182 00f4 C3F30723 		ubfx	r3, r3, #8, #8
 183 00f8 0132     		adds	r2, r2, #1
 184 00fa D204     		lsls	r2, r2, #19
 185 00fc 4264     		str	r2, [r0, #68]
 186 00fe 4FF40072 		mov	r2, #512
 187 0102 8264     		str	r2, [r0, #72]
 188              	.L7:
 189 0104 C3F38012 		ubfx	r2, r3, #6, #1
 190 0108 03F03F03 		and	r3, r3, #63
 191 010c 5B00     		lsls	r3, r3, #1
 192 010e 4276     		strb	r2, [r0, #25]
 193 0110 8376     		strb	r3, [r0, #26]
 194 0112 827E     		ldrb	r2, [r0, #26]	@ zero_extendqisi2
 195 0114 90F86830 		ldrb	r3, [r0, #104]	@ zero_extendqisi2
 196 0118 42EAD312 		orr	r2, r2, r3, lsr #7
 197 011c 8276     		strb	r2, [r0, #26]
 198 011e C26E     		ldr	r2, [r0, #108]
 199 0120 03F07F03 		and	r3, r3, #127
 200 0124 C376     		strb	r3, [r0, #27]
 201 0126 130E     		lsrs	r3, r2, #24
 202 0128 D909     		lsrs	r1, r3, #7
 203 012a 0177     		strb	r1, [r0, #28]
 204 012c C3F34111 		ubfx	r1, r3, #5, #2
 205 0130 4177     		strb	r1, [r0, #29]
 206 0132 C3F38201 		ubfx	r1, r3, #2, #3
 207 0136 03F00303 		and	r3, r3, #3
 208 013a 9B00     		lsls	r3, r3, #2
 209 013c 8177     		strb	r1, [r0, #30]
 210 013e C377     		strb	r3, [r0, #31]
 211 0140 C17F     		ldrb	r1, [r0, #31]	@ zero_extendqisi2
 212 0142 C2F30743 		ubfx	r3, r2, #16, #8
 213 0146 41EA9311 		orr	r1, r1, r3, lsr #6
 214 014a C177     		strb	r1, [r0, #31]
 215 014c C3F34011 		ubfx	r1, r3, #5, #1
 216 0150 80F82010 		strb	r1, [r0, #32]
 217 0154 03F00103 		and	r3, r3, #1
 218 0158 0021     		movs	r1, #0
 219 015a 80F82110 		strb	r1, [r0, #33]
 220 015e 80F82230 		strb	r3, [r0, #34]
 221 0162 C2F30723 		ubfx	r3, r2, #8, #8
 222 0166 D909     		lsrs	r1, r3, #7
 223 0168 80F82310 		strb	r1, [r0, #35]
 224 016c C3F38011 		ubfx	r1, r3, #6, #1
 225 0170 80F82410 		strb	r1, [r0, #36]
 226 0174 C3F34011 		ubfx	r1, r3, #5, #1
 227 0178 80F82510 		strb	r1, [r0, #37]
 228 017c C3F30011 		ubfx	r1, r3, #4, #1
 229 0180 80F82610 		strb	r1, [r0, #38]
 230 0184 C3F38101 		ubfx	r1, r3, #2, #2
 231 0188 03F00303 		and	r3, r3, #3
 232 018c 80F82710 		strb	r1, [r0, #39]
 233 0190 80F82830 		strb	r3, [r0, #40]
 234 0194 036D     		ldr	r3, [r0, #80]
 235 0196 C2F34602 		ubfx	r2, r2, #1, #7
 236 019a 80F82920 		strb	r2, [r0, #41]
 237 019e 190E     		lsrs	r1, r3, #24
 238 01a0 0122     		movs	r2, #1
 239 01a2 80F82A20 		strb	r2, [r0, #42]
 240 01a6 80F82C10 		strb	r1, [r0, #44]
 241 01aa C3F30741 		ubfx	r1, r3, #16, #8
 242 01ae 0902     		lsls	r1, r1, #8
 243 01b0 C185     		strh	r1, [r0, #46]	@ movhi
 244 01b2 C18D     		ldrh	r1, [r0, #46]
 245 01b4 C3F30724 		ubfx	r4, r3, #8, #8
 246 01b8 89B2     		uxth	r1, r1
 247 01ba 2143     		orrs	r1, r1, r4
 248 01bc 1B06     		lsls	r3, r3, #24
 249 01be C185     		strh	r1, [r0, #46]	@ movhi
 250 01c0 0363     		str	r3, [r0, #48]
 251 01c2 436D     		ldr	r3, [r0, #84]
 252 01c4 016B     		ldr	r1, [r0, #48]
 253 01c6 1C0E     		lsrs	r4, r3, #24
 254 01c8 41EA0441 		orr	r1, r1, r4, lsl #16
 255 01cc 0163     		str	r1, [r0, #48]
 256 01ce 016B     		ldr	r1, [r0, #48]
 257 01d0 C3F30744 		ubfx	r4, r3, #16, #8
 258 01d4 41EA0421 		orr	r1, r1, r4, lsl #8
 259 01d8 0163     		str	r1, [r0, #48]
 260 01da 016B     		ldr	r1, [r0, #48]
 261 01dc C3F30724 		ubfx	r4, r3, #8, #8
 262 01e0 2143     		orrs	r1, r1, r4
 263 01e2 DBB2     		uxtb	r3, r3
 264 01e4 0163     		str	r1, [r0, #48]
 265 01e6 80F83430 		strb	r3, [r0, #52]
 266 01ea 836D     		ldr	r3, [r0, #88]
 267 01ec 190E     		lsrs	r1, r3, #24
 268 01ee 80F83510 		strb	r1, [r0, #53]
 269 01f2 C3F30741 		ubfx	r1, r3, #16, #8
 270 01f6 0906     		lsls	r1, r1, #24
 271 01f8 8163     		str	r1, [r0, #56]
 272 01fa 816B     		ldr	r1, [r0, #56]
 273 01fc C3F30724 		ubfx	r4, r3, #8, #8
 274 0200 41EA0441 		orr	r1, r1, r4, lsl #16
 275 0204 8163     		str	r1, [r0, #56]
 276 0206 816B     		ldr	r1, [r0, #56]
 277 0208 DBB2     		uxtb	r3, r3
 278 020a 41EA0323 		orr	r3, r1, r3, lsl #8
 279 020e 8363     		str	r3, [r0, #56]
 280 0210 816B     		ldr	r1, [r0, #56]
 281 0212 C36D     		ldr	r3, [r0, #92]
 282 0214 41EA1361 		orr	r1, r1, r3, lsr #24
 283 0218 8163     		str	r1, [r0, #56]
 284 021a 90F83C40 		ldrb	r4, [r0, #60]	@ zero_extendqisi2
 285 021e C3F30741 		ubfx	r1, r3, #16, #8
 286 0222 44EA1114 		orr	r4, r4, r1, lsr #4
 287 0226 01F00F01 		and	r1, r1, #15
 288 022a 0902     		lsls	r1, r1, #8
 289 022c 80F83C40 		strb	r4, [r0, #60]
 290 0230 C187     		strh	r1, [r0, #62]	@ movhi
 291 0232 C18F     		ldrh	r1, [r0, #62]
 292 0234 C3F30724 		ubfx	r4, r3, #8, #8
 293 0238 89B2     		uxth	r1, r1
 294 023a 2143     		orrs	r1, r1, r4
 295 023c C3F34603 		ubfx	r3, r3, #1, #7
 296 0240 C187     		strh	r1, [r0, #62]	@ movhi
 297 0242 80F84030 		strb	r3, [r0, #64]
 298 0246 80F84120 		strb	r2, [r0, #65]
 299 024a 30BD     		pop	{r4, r5, pc}
 301              		.section	.text._ZN4sd_t3CmdEmm13SD_RespType_tz,"ax",%progbits
 302              		.align	1
 303              		.global	_ZN4sd_t3CmdEmm13SD_RespType_tz
 304              		.thumb
 305              		.thumb_func
 307              	_ZN4sd_t3CmdEmm13SD_RespType_tz:
 308              		@ args = 4, pretend = 4, frame = 24
 309              		@ frame_needed = 0, uses_anonymous_args = 1
 310 0000 08B4     		push	{r3}
 311 0002 70B5     		push	{r4, r5, r6, lr}
 312 0004 87B0     		sub	sp, sp, #28
 313 0006 0BAB     		add	r3, sp, #44
 314 0008 13F8045B 		ldrb	r5, [r3], #4	@ zero_extendqisi2
 315 000c 0C46     		mov	r4, r1
 316 000e 0593     		str	r3, [sp, #20]
 317 0010 052D     		cmp	r5, #5
 318 0012 0AD8     		bhi	.L9
 319 0014 DFE805F0 		tbb	[pc, r5]
 320              	.L13:
 321 0018 03       		.byte	(.L10-.L13)/2
 322 0019 05       		.byte	(.L11-.L13)/2
 323 001a 07       		.byte	(.L12-.L13)/2
 324 001b 05       		.byte	(.L11-.L13)/2
 325 001c 05       		.byte	(.L11-.L13)/2
 326 001d 05       		.byte	(.L11-.L13)/2
 327              		.align	1
 328              	.L10:
 329 001e 0023     		movs	r3, #0
 330 0020 02E0     		b	.L27
 331              	.L11:
 332 0022 4023     		movs	r3, #64
 333 0024 00E0     		b	.L27
 334              	.L12:
 335 0026 C023     		movs	r3, #192
 336              	.L27:
 337 0028 0293     		str	r3, [sp, #8]
 338              	.L9:
 339 002a 0023     		movs	r3, #0
 340 002c 0393     		str	r3, [sp, #12]
 341 002e 6846     		mov	r0, sp
 342 0030 4FF48063 		mov	r3, #1024
 343 0034 8DE81400 		stmia	sp, {r2, r4}
 344 0038 0493     		str	r3, [sp, #16]
 345 003a FFF7FEFF 		bl	SDIO_SendCommand
 346 003e 2749     		ldr	r1, .L29
 347 0040 42F21072 		movw	r2, #10000
 348              	.L19:
 349 0044 4B6B     		ldr	r3, [r1, #52]
 350 0046 15B9     		cbnz	r5, .L14
 351 0048 1806     		lsls	r0, r3, #24
 352 004a 0BD5     		bpl	.L16
 353 004c 34E0     		b	.L28
 354              	.L14:
 355 004e 012D     		cmp	r5, #1
 356 0050 08D1     		bne	.L16
 357 0052 13F0450F 		tst	r3, #69
 358 0056 05D0     		beq	.L16
 359 0058 204B     		ldr	r3, .L29
 360 005a 5C69     		ldr	r4, [r3, #20]
 361 005c 04F00804 		and	r4, r4, #8
 362 0060 E4B2     		uxtb	r4, r4
 363 0062 30E0     		b	.L15
 364              	.L16:
 365 0064 13F00106 		ands	r6, r3, #1
 366 0068 0CD0     		beq	.L17
 367 006a A5F1030E 		sub	lr, r5, #3
 368 006e DEF10004 		rsbs	r4, lr, #0
 369 0072 44EB0E04 		adc	r4, r4, lr
 370 0076 052D     		cmp	r5, #5
 371 0078 08BF     		it	eq
 372 007a 44F00104 		orreq	r4, r4, #1
 373 007e 84F00104 		eor	r4, r4, #1
 374 0082 20E0     		b	.L15
 375              	.L17:
 376 0084 5806     		lsls	r0, r3, #25
 377 0086 12D5     		bpl	.L18
 378 0088 042D     		cmp	r5, #4
 379 008a 19D1     		bne	.L24
 380 008c FFF7FEFF 		bl	SDIO_GetCommandResponse
 381 0090 A042     		cmp	r0, r4
 382 0092 13D1     		bne	.L23
 383 0094 3046     		mov	r0, r6
 384 0096 FFF7FEFF 		bl	SDIO_GetResponse
 385 009a 10F46044 		ands	r4, r0, #57344
 386 009e 0FD1     		bne	.L24
 387 00a0 059B     		ldr	r3, [sp, #20]
 388 00a2 000C     		lsrs	r0, r0, #16
 389 00a4 1A1D     		adds	r2, r3, #4
 390 00a6 0592     		str	r2, [sp, #20]
 391 00a8 1B68     		ldr	r3, [r3, #0]
 392 00aa 1880     		strh	r0, [r3, #0]	@ movhi
 393 00ac 0BE0     		b	.L15
 394              	.L18:
 395 00ae 5B07     		lsls	r3, r3, #29
 396 00b0 08D4     		bmi	.L25
 397 00b2 013A     		subs	r2, r2, #1
 398 00b4 C6D1     		bne	.L19
 399 00b6 05E0     		b	.L25
 400              	.L28:
 401 00b8 2C46     		mov	r4, r5
 402 00ba 04E0     		b	.L15
 403              	.L23:
 404 00bc 1024     		movs	r4, #16
 405 00be 02E0     		b	.L15
 406              	.L24:
 407 00c0 3446     		mov	r4, r6
 408 00c2 00E0     		b	.L15
 409              	.L25:
 410 00c4 0324     		movs	r4, #3
 411              	.L15:
 412 00c6 40F2FF50 		movw	r0, #1535
 413 00ca FFF7FEFF 		bl	SDIO_ClearFlag
 414 00ce 2046     		mov	r0, r4
 415 00d0 07B0     		add	sp, sp, #28
 416 00d2 BDE87040 		pop	{r4, r5, r6, lr}
 417 00d6 01B0     		add	sp, sp, #4
 418 00d8 7047     		bx	lr
 419              	.L30:
 420 00da 00BF     		.align	2
 421              	.L29:
 422 00dc 00800140 		.word	1073840128
 424              		.section	.text._ZN4sd_t7FindSCREPm,"ax",%progbits
 425              		.align	1
 426              		.global	_ZN4sd_t7FindSCREPm
 427              		.thumb
 428              		.thumb_func
 430              	_ZN4sd_t7FindSCREPm:
 431              		@ args = 0, pretend = 0, frame = 32
 432              		@ frame_needed = 0, uses_anonymous_args = 0
 433 0000 F0B5     		push	{r4, r5, r6, r7, lr}
 434 0002 0023     		movs	r3, #0
 435 0004 89B0     		sub	sp, sp, #36
 436 0006 0693     		str	r3, [sp, #24]
 437 0008 0793     		str	r3, [sp, #28]
 438 000a 0D46     		mov	r5, r1
 439 000c 0822     		movs	r2, #8
 440 000e 1021     		movs	r1, #16
 441 0010 0123     		movs	r3, #1
 442 0012 0446     		mov	r4, r0
 443 0014 FFF7FEFF 		bl	_ZN4sd_t3CmdEmm13SD_RespType_tz
 444 0018 0746     		mov	r7, r0
 445 001a 0028     		cmp	r0, #0
 446 001c 68D1     		bne	.L32
 447 001e B4F84C20 		ldrh	r2, [r4, #76]
 448 0022 2046     		mov	r0, r4
 449 0024 1204     		lsls	r2, r2, #16
 450 0026 3721     		movs	r1, #55
 451 0028 0123     		movs	r3, #1
 452 002a FFF7FEFF 		bl	_ZN4sd_t3CmdEmm13SD_RespType_tz
 453 002e 0746     		mov	r7, r0
 454 0030 0028     		cmp	r0, #0
 455 0032 5DD1     		bne	.L32
 456 0034 4FF0FF33 		mov	r3, #-1
 457 0038 4FF0300C 		mov	ip, #48
 458 003c 4FF0020E 		mov	lr, #2
 459 0040 0826     		movs	r6, #8
 460 0042 8DE84850 		stmia	sp, {r3, r6, ip, lr}
 461 0046 0490     		str	r0, [sp, #16]
 462 0048 0126     		movs	r6, #1
 463 004a 6846     		mov	r0, sp
 464 004c 0596     		str	r6, [sp, #20]
 465 004e FFF7FEFF 		bl	SDIO_DataConfig
 466 0052 3A46     		mov	r2, r7
 467 0054 2046     		mov	r0, r4
 468 0056 3321     		movs	r1, #51
 469 0058 3346     		mov	r3, r6
 470 005a FFF7FEFF 		bl	_ZN4sd_t3CmdEmm13SD_RespType_tz
 471 005e 0746     		mov	r7, r0
 472 0060 0028     		cmp	r0, #0
 473 0062 45D1     		bne	.L32
 474 0064 0446     		mov	r4, r0
 475 0066 244E     		ldr	r6, .L44
 476 0068 0CE0     		b	.L43
 477              	.L36:
 478 006a 4FF40010 		mov	r0, #2097152
 479 006e FFF7FEFF 		bl	SDIO_GetFlagStatus
 480 0072 38B1     		cbz	r0, .L43
 481 0074 FFF7FEFF 		bl	SDIO_ReadData
 482 0078 012C     		cmp	r4, #1
 483 007a 9CBF     		itt	ls
 484 007c 06AB     		addls	r3, sp, #24
 485 007e 43F82400 		strls	r0, [r3, r4, lsl #2]
 486 0082 0134     		adds	r4, r4, #1
 487              	.L43:
 488 0084 726B     		ldr	r2, [r6, #52]
 489 0086 40F22A63 		movw	r3, #1578
 490 008a 1340     		ands	r3, r3, r2
 491 008c 002B     		cmp	r3, #0
 492 008e ECD0     		beq	.L36
 493 0090 0820     		movs	r0, #8
 494 0092 FFF7FEFF 		bl	SDIO_GetFlagStatus
 495 0096 20B1     		cbz	r0, .L37
 496 0098 0820     		movs	r0, #8
 497 009a FFF7FEFF 		bl	SDIO_ClearFlag
 498 009e 0427     		movs	r7, #4
 499 00a0 26E0     		b	.L32
 500              	.L37:
 501 00a2 0220     		movs	r0, #2
 502 00a4 FFF7FEFF 		bl	SDIO_GetFlagStatus
 503 00a8 20B1     		cbz	r0, .L38
 504 00aa 0220     		movs	r0, #2
 505 00ac FFF7FEFF 		bl	SDIO_ClearFlag
 506 00b0 0227     		movs	r7, #2
 507 00b2 1DE0     		b	.L32
 508              	.L38:
 509 00b4 2020     		movs	r0, #32
 510 00b6 FFF7FEFF 		bl	SDIO_GetFlagStatus
 511 00ba 20B1     		cbz	r0, .L39
 512 00bc 2020     		movs	r0, #32
 513 00be FFF7FEFF 		bl	SDIO_ClearFlag
 514 00c2 0627     		movs	r7, #6
 515 00c4 14E0     		b	.L32
 516              	.L39:
 517 00c6 4FF40070 		mov	r0, #512
 518 00ca FFF7FEFF 		bl	SDIO_GetFlagStatus
 519 00ce 28B1     		cbz	r0, .L40
 520 00d0 4FF40070 		mov	r0, #512
 521 00d4 FFF7FEFF 		bl	SDIO_ClearFlag
 522 00d8 0727     		movs	r7, #7
 523 00da 09E0     		b	.L32
 524              	.L40:
 525 00dc 40F2FF50 		movw	r0, #1535
 526 00e0 FFF7FEFF 		bl	SDIO_ClearFlag
 527 00e4 069B     		ldr	r3, [sp, #24]
 528 00e6 1BBA     		rev	r3, r3
 529 00e8 6B60     		str	r3, [r5, #4]
 530 00ea 079B     		ldr	r3, [sp, #28]
 531 00ec 1BBA     		rev	r3, r3
 532 00ee 2B60     		str	r3, [r5, #0]
 533              	.L32:
 534 00f0 3846     		mov	r0, r7
 535 00f2 09B0     		add	sp, sp, #36
 536 00f4 F0BD     		pop	{r4, r5, r6, r7, pc}
 537              	.L45:
 538 00f6 00BF     		.align	2
 539              	.L44:
 540 00f8 00800140 		.word	1073840128
 542              		.section	.text._ZN4sd_t11SDEnWideBusE15FunctionalState,"ax",%progbits
 543              		.align	1
 544              		.global	_ZN4sd_t11SDEnWideBusE15FunctionalState
 545              		.thumb
 546              		.thumb_func
 548              	_ZN4sd_t11SDEnWideBusE15FunctionalState:
 549              		@ args = 0, pretend = 0, frame = 8
 550              		@ frame_needed = 0, uses_anonymous_args = 0
 551 0000 37B5     		push	{r0, r1, r2, r4, r5, lr}
 552 0002 0446     		mov	r4, r0
 553 0004 0020     		movs	r0, #0
 554 0006 0D46     		mov	r5, r1
 555 0008 FFF7FEFF 		bl	SDIO_GetResponse
 556 000c 0E22     		movs	r2, #14
 557 000e 8101     		lsls	r1, r0, #6
 558 0010 2DD4     		bmi	.L47
 559 0012 2046     		mov	r0, r4
 560 0014 6946     		mov	r1, sp
 561 0016 FFF7FEFF 		bl	_ZN4sd_t7FindSCREPm
 562 001a 0246     		mov	r2, r0
 563 001c 38BB     		cbnz	r0, .L47
 564 001e 012D     		cmp	r5, #1
 565 0020 019B     		ldr	r3, [sp, #4]
 566 0022 10D1     		bne	.L49
 567 0024 5A03     		lsls	r2, r3, #13
 568 0026 21D5     		bpl	.L52
 569 0028 B4F84C20 		ldrh	r2, [r4, #76]
 570 002c 2046     		mov	r0, r4
 571 002e 1204     		lsls	r2, r2, #16
 572 0030 3721     		movs	r1, #55
 573 0032 2B46     		mov	r3, r5
 574 0034 FFF7FEFF 		bl	_ZN4sd_t3CmdEmm13SD_RespType_tz
 575 0038 0246     		mov	r2, r0
 576 003a C0B9     		cbnz	r0, .L47
 577 003c 2046     		mov	r0, r4
 578 003e 0621     		movs	r1, #6
 579 0040 0222     		movs	r2, #2
 580 0042 2B46     		mov	r3, r5
 581 0044 0EE0     		b	.L53
 582              	.L49:
 583 0046 DB03     		lsls	r3, r3, #15
 584 0048 10D5     		bpl	.L52
 585 004a B4F84C20 		ldrh	r2, [r4, #76]
 586 004e 2046     		mov	r0, r4
 587 0050 1204     		lsls	r2, r2, #16
 588 0052 3721     		movs	r1, #55
 589 0054 0123     		movs	r3, #1
 590 0056 FFF7FEFF 		bl	_ZN4sd_t3CmdEmm13SD_RespType_tz
 591 005a 0246     		mov	r2, r0
 592 005c 38B9     		cbnz	r0, .L47
 593 005e 2046     		mov	r0, r4
 594 0060 0621     		movs	r1, #6
 595 0062 0123     		movs	r3, #1
 596              	.L53:
 597 0064 FFF7FEFF 		bl	_ZN4sd_t3CmdEmm13SD_RespType_tz
 598 0068 0246     		mov	r2, r0
 599 006a 00E0     		b	.L47
 600              	.L52:
 601 006c 2522     		movs	r2, #37
 602              	.L47:
 603 006e 1046     		mov	r0, r2
 604 0070 3EBD     		pop	{r1, r2, r3, r4, r5, pc}
 606              		.section	.text._ZN4sd_t22EnableWideBusOperationEm,"ax",%progbits
 607              		.align	1
 608              		.global	_ZN4sd_t22EnableWideBusOperationEm
 609              		.thumb
 610              		.thumb_func
 612              	_ZN4sd_t22EnableWideBusOperationEm:
 613              		@ args = 0, pretend = 0, frame = 0
 614              		@ frame_needed = 0, uses_anonymous_args = 0
 615 0000 70B5     		push	{r4, r5, r6, lr}
 616 0002 90F84E30 		ldrb	r3, [r0, #78]	@ zero_extendqisi2
 617 0006 0546     		mov	r5, r0
 618 0008 032B     		cmp	r3, #3
 619 000a 0E46     		mov	r6, r1
 620 000c 1CD0     		beq	.L59
 621 000e 0024     		movs	r4, #0
 622 0010 022B     		cmp	r3, #2
 623 0012 1AD8     		bhi	.L55
 624 0014 B1F5805F 		cmp	r1, #4096
 625 0018 16D0     		beq	.L59
 626 001a B1F5006F 		cmp	r1, #2048
 627 001e 08D1     		bne	.L56
 628 0020 0121     		movs	r1, #1
 629 0022 FFF7FEFF 		bl	_ZN4sd_t11SDEnWideBusE15FunctionalState
 630 0026 0446     		mov	r4, r0
 631 0028 0421     		movs	r1, #4
 632 002a 2846     		mov	r0, r5
 633 002c 3246     		mov	r2, r6
 634 002e 64B9     		cbnz	r4, .L55
 635 0030 07E0     		b	.L60
 636              	.L56:
 637 0032 0021     		movs	r1, #0
 638 0034 FFF7FEFF 		bl	_ZN4sd_t11SDEnWideBusE15FunctionalState
 639 0038 0446     		mov	r4, r0
 640 003a 30B9     		cbnz	r0, .L55
 641 003c 2846     		mov	r0, r5
 642 003e 0421     		movs	r1, #4
 643 0040 2246     		mov	r2, r4
 644              	.L60:
 645 0042 FFF7FEFF 		bl	_ZN4sd_t8InitSDIOEhm
 646 0046 00E0     		b	.L55
 647              	.L59:
 648 0048 2724     		movs	r4, #39
 649              	.L55:
 650 004a 2046     		mov	r0, r4
 651 004c 70BD     		pop	{r4, r5, r6, pc}
 653              		.section	.text._ZN4sd_t9InitCardsEv,"ax",%progbits
 654              		.align	1
 655              		.global	_ZN4sd_t9InitCardsEv
 656              		.thumb
 657              		.thumb_func
 659              	_ZN4sd_t9InitCardsEv:
 660              		@ args = 0, pretend = 0, frame = 0
 661              		@ frame_needed = 0, uses_anonymous_args = 0
 662 0000 37B5     		push	{r0, r1, r2, r4, r5, lr}
 663 0002 0446     		mov	r4, r0
 664 0004 FFF7FEFF 		bl	SDIO_GetPowerState
 665 0008 2525     		movs	r5, #37
 666 000a 0028     		cmp	r0, #0
 667 000c 51D0     		beq	.L62
 668 000e 94F84E30 		ldrb	r3, [r4, #78]	@ zero_extendqisi2
 669 0012 042B     		cmp	r3, #4
 670 0014 17D0     		beq	.L63
 671 0016 0221     		movs	r1, #2
 672 0018 2046     		mov	r0, r4
 673 001a 0022     		movs	r2, #0
 674 001c 0B46     		mov	r3, r1
 675 001e FFF7FEFF 		bl	_ZN4sd_t3CmdEmm13SD_RespType_tz
 676 0022 0546     		mov	r5, r0
 677 0024 0028     		cmp	r0, #0
 678 0026 44D1     		bne	.L62
 679 0028 FFF7FEFF 		bl	SDIO_GetResponse
 680 002c 2065     		str	r0, [r4, #80]
 681 002e 0420     		movs	r0, #4
 682 0030 FFF7FEFF 		bl	SDIO_GetResponse
 683 0034 6065     		str	r0, [r4, #84]
 684 0036 0820     		movs	r0, #8
 685 0038 FFF7FEFF 		bl	SDIO_GetResponse
 686 003c A065     		str	r0, [r4, #88]
 687 003e 0C20     		movs	r0, #12
 688 0040 FFF7FEFF 		bl	SDIO_GetResponse
 689 0044 E065     		str	r0, [r4, #92]
 690              	.L63:
 691 0046 94F84E30 		ldrb	r3, [r4, #78]	@ zero_extendqisi2
 692 004a 012B     		cmp	r3, #1
 693 004c 8CBF     		ite	hi
 694 004e 0022     		movhi	r2, #0
 695 0050 0122     		movls	r2, #1
 696 0052 062B     		cmp	r3, #6
 697 0054 08BF     		it	eq
 698 0056 42F00102 		orreq	r2, r2, #1
 699 005a 0AB9     		cbnz	r2, .L64
 700 005c 022B     		cmp	r3, #2
 701 005e 0AD1     		bne	.L65
 702              	.L64:
 703 0060 04F14C03 		add	r3, r4, #76
 704 0064 0093     		str	r3, [sp, #0]
 705 0066 2046     		mov	r0, r4
 706 0068 0321     		movs	r1, #3
 707 006a 0022     		movs	r2, #0
 708 006c 0423     		movs	r3, #4
 709 006e FFF7FEFF 		bl	_ZN4sd_t3CmdEmm13SD_RespType_tz
 710 0072 0546     		mov	r5, r0
 711 0074 E8B9     		cbnz	r0, .L62
 712              	.L65:
 713 0076 94F84E30 		ldrb	r3, [r4, #78]	@ zero_extendqisi2
 714 007a 0025     		movs	r5, #0
 715 007c 042B     		cmp	r3, #4
 716 007e 18D0     		beq	.L62
 717 0080 B4F84C20 		ldrh	r2, [r4, #76]
 718 0084 2046     		mov	r0, r4
 719 0086 1204     		lsls	r2, r2, #16
 720 0088 0921     		movs	r1, #9
 721 008a 0223     		movs	r3, #2
 722 008c FFF7FEFF 		bl	_ZN4sd_t3CmdEmm13SD_RespType_tz
 723 0090 0546     		mov	r5, r0
 724 0092 70B9     		cbnz	r0, .L62
 725 0094 FFF7FEFF 		bl	SDIO_GetResponse
 726 0098 2066     		str	r0, [r4, #96]
 727 009a 0420     		movs	r0, #4
 728 009c FFF7FEFF 		bl	SDIO_GetResponse
 729 00a0 6066     		str	r0, [r4, #100]
 730 00a2 0820     		movs	r0, #8
 731 00a4 FFF7FEFF 		bl	SDIO_GetResponse
 732 00a8 A066     		str	r0, [r4, #104]
 733 00aa 0C20     		movs	r0, #12
 734 00ac FFF7FEFF 		bl	SDIO_GetResponse
 735 00b0 E066     		str	r0, [r4, #108]
 736              	.L62:
 737 00b2 2846     		mov	r0, r5
 738 00b4 3EBD     		pop	{r1, r2, r3, r4, r5, pc}
 740              		.section	.text._ZN4sd_t7PowerOnEv,"ax",%progbits
 741              		.align	1
 742              		.global	_ZN4sd_t7PowerOnEv
 743              		.thumb
 744              		.thumb_func
 746              	_ZN4sd_t7PowerOnEv:
 747              		@ args = 0, pretend = 0, frame = 0
 748              		@ frame_needed = 0, uses_anonymous_args = 0
 749 0000 0021     		movs	r1, #0
 750 0002 F8B5     		push	{r3, r4, r5, r6, r7, lr}
 751 0004 0A46     		mov	r2, r1
 752 0006 0B46     		mov	r3, r1
 753 0008 0546     		mov	r5, r0
 754 000a FFF7FEFF 		bl	_ZN4sd_t3CmdEmm13SD_RespType_tz
 755 000e 0446     		mov	r4, r0
 756 0010 0028     		cmp	r0, #0
 757 0012 3ED1     		bne	.L69
 758 0014 2846     		mov	r0, r5
 759 0016 0821     		movs	r1, #8
 760 0018 4FF4D572 		mov	r2, #426
 761 001c 0523     		movs	r3, #5
 762 001e FFF7FEFF 		bl	_ZN4sd_t3CmdEmm13SD_RespType_tz
 763 0022 28B9     		cbnz	r0, .L70
 764 0024 0123     		movs	r3, #1
 765 0026 85F84E30 		strb	r3, [r5, #78]
 766 002a 4FF08047 		mov	r7, #1073741824
 767 002e 06E0     		b	.L71
 768              	.L70:
 769 0030 2846     		mov	r0, r5
 770 0032 3721     		movs	r1, #55
 771 0034 2246     		mov	r2, r4
 772 0036 0123     		movs	r3, #1
 773 0038 FFF7FEFF 		bl	_ZN4sd_t3CmdEmm13SD_RespType_tz
 774 003c 2746     		mov	r7, r4
 775              	.L71:
 776 003e 2846     		mov	r0, r5
 777 0040 3721     		movs	r1, #55
 778 0042 0022     		movs	r2, #0
 779 0044 0123     		movs	r3, #1
 780 0046 FFF7FEFF 		bl	_ZN4sd_t3CmdEmm13SD_RespType_tz
 781 004a 10BB     		cbnz	r0, .L69
 782 004c 47F00047 		orr	r7, r7, #-2147483648
 783 0050 4FF48036 		mov	r6, #65536
 784 0054 47F48017 		orr	r7, r7, #1048576
 785              	.L72:
 786 0058 2846     		mov	r0, r5
 787 005a 3721     		movs	r1, #55
 788 005c 0022     		movs	r2, #0
 789 005e 0123     		movs	r3, #1
 790 0060 FFF7FEFF 		bl	_ZN4sd_t3CmdEmm13SD_RespType_tz
 791 0064 0446     		mov	r4, r0
 792 0066 A0B9     		cbnz	r0, .L69
 793 0068 2846     		mov	r0, r5
 794 006a 2921     		movs	r1, #41
 795 006c 3A46     		mov	r2, r7
 796 006e 0323     		movs	r3, #3
 797 0070 FFF7FEFF 		bl	_ZN4sd_t3CmdEmm13SD_RespType_tz
 798 0074 0446     		mov	r4, r0
 799 0076 60B9     		cbnz	r0, .L69
 800 0078 FFF7FEFF 		bl	SDIO_GetResponse
 801 007c 013E     		subs	r6, r6, #1
 802 007e 07D0     		beq	.L73
 803 0080 0028     		cmp	r0, #0
 804 0082 E9DA     		bge	.L72
 805 0084 4000     		lsls	r0, r0, #1
 806 0086 04D5     		bpl	.L69
 807 0088 0223     		movs	r3, #2
 808 008a 85F84E30 		strb	r3, [r5, #78]
 809 008e 00E0     		b	.L69
 810              	.L73:
 811 0090 1B24     		movs	r4, #27
 812              	.L69:
 813 0092 2046     		mov	r0, r4
 814 0094 F8BD     		pop	{r3, r4, r5, r6, r7, pc}
 816              		.section	.text._ZN4sd_t4InitEv,"ax",%progbits
 817              		.align	1
 818              		.global	_ZN4sd_t4InitEv
 819              		.thumb
 820              		.thumb_func
 822              	_ZN4sd_t4InitEv:
 823              		@ args = 0, pretend = 0, frame = 0
 824              		@ frame_needed = 0, uses_anonymous_args = 0
 825 0000 70B5     		push	{r4, r5, r6, lr}
 826 0002 0025     		movs	r5, #0
 827 0004 0446     		mov	r4, r0
 828 0006 80F84E50 		strb	r5, [r0, #78]
 829 000a FFF7FEFF 		bl	_ZN4sd_t12LowLevelInitEv
 830 000e B221     		movs	r1, #178
 831 0010 2A46     		mov	r2, r5
 832 0012 2046     		mov	r0, r4
 833 0014 FFF7FEFF 		bl	_ZN4sd_t8InitSDIOEhm
 834 0018 0320     		movs	r0, #3
 835 001a FFF7FEFF 		bl	SDIO_SetPowerState
 836 001e 0120     		movs	r0, #1
 837 0020 FFF7FEFF 		bl	SDIO_ClockCmd
 838 0024 2046     		mov	r0, r4
 839 0026 FFF7FEFF 		bl	_ZN4sd_t7PowerOnEv
 840 002a 18BB     		cbnz	r0, .L76
 841 002c 2046     		mov	r0, r4
 842 002e FFF7FEFF 		bl	_ZN4sd_t9InitCardsEv
 843 0032 0246     		mov	r2, r0
 844 0034 F2B9     		cbnz	r2, .L76
 845 0036 0421     		movs	r1, #4
 846 0038 2046     		mov	r0, r4
 847 003a FFF7FEFF 		bl	_ZN4sd_t8InitSDIOEhm
 848 003e 2046     		mov	r0, r4
 849 0040 FFF7FEFF 		bl	_ZN4sd_t11GetCardInfoEv
 850 0044 B4F84C20 		ldrh	r2, [r4, #76]
 851 0048 2046     		mov	r0, r4
 852 004a 1204     		lsls	r2, r2, #16
 853 004c 0721     		movs	r1, #7
 854 004e 0123     		movs	r3, #1
 855 0050 FFF7FEFF 		bl	_ZN4sd_t3CmdEmm13SD_RespType_tz
 856 0054 70B9     		cbnz	r0, .L76
 857 0056 2046     		mov	r0, r4
 858 0058 4FF40061 		mov	r1, #2048
 859 005c FFF7FEFF 		bl	_ZN4sd_t22EnableWideBusOperationEm
 860 0060 40B9     		cbnz	r0, .L76
 861 0062 2046     		mov	r0, r4
 862 0064 1021     		movs	r1, #16
 863 0066 4FF40072 		mov	r2, #512
 864 006a 0123     		movs	r3, #1
 865 006c BDE87040 		pop	{r4, r5, r6, lr}
 866 0070 FFF7FEBF 		b	_ZN4sd_t3CmdEmm13SD_RespType_tz
 867              	.L76:
 868 0074 70BD     		pop	{r4, r5, r6, pc}
 870              		.section	.text._ZN4sd_t9ReadBlockEPhmt,"ax",%progbits
 871              		.align	1
 872              		.global	_ZN4sd_t9ReadBlockEPhmt
 873              		.thumb
 874              		.thumb_func
 876              	_ZN4sd_t9ReadBlockEPhmt:
 877              		@ args = 0, pretend = 0, frame = 72
 878              		@ frame_needed = 0, uses_anonymous_args = 0
 879 0000 2DE9F041 		push	{r4, r5, r6, r7, r8, lr}
 880 0004 1D46     		mov	r5, r3
 881 0006 284B     		ldr	r3, .L80
 882 0008 9046     		mov	r8, r2
 883 000a 0022     		movs	r2, #0
 884 000c DA62     		str	r2, [r3, #44]
 885 000e 90F84E30 		ldrb	r3, [r0, #78]	@ zero_extendqisi2
 886 0012 92B0     		sub	sp, sp, #72
 887 0014 022B     		cmp	r3, #2
 888 0016 4FF0FF33 		mov	r3, #-1
 889 001a 04BF     		itt	eq
 890 001c 4FEA5828 		lsreq	r8, r8, #9
 891 0020 4FF40075 		moveq	r5, #512
 892 0024 0C93     		str	r3, [sp, #48]
 893 0026 9023     		movs	r3, #144
 894 0028 0E93     		str	r3, [sp, #56]
 895 002a 0223     		movs	r3, #2
 896 002c 0646     		mov	r6, r0
 897 002e 0F93     		str	r3, [sp, #60]
 898 0030 0124     		movs	r4, #1
 899 0032 0023     		movs	r3, #0
 900 0034 0CA8     		add	r0, sp, #48
 901 0036 0F46     		mov	r7, r1
 902 0038 1093     		str	r3, [sp, #64]
 903 003a 0D95     		str	r5, [sp, #52]
 904 003c 1194     		str	r4, [sp, #68]
 905 003e FFF7FEFF 		bl	SDIO_DataConfig
 906 0042 3046     		mov	r0, r6
 907 0044 1121     		movs	r1, #17
 908 0046 4246     		mov	r2, r8
 909 0048 2346     		mov	r3, r4
 910 004a FFF7FEFF 		bl	_ZN4sd_t3CmdEmm13SD_RespType_tz
 911 004e 0646     		mov	r6, r0
 912 0050 28BB     		cbnz	r0, .L79
 913 0052 2046     		mov	r0, r4
 914 0054 FFF7FEFF 		bl	SDIO_DMACmd
 915 0058 1448     		ldr	r0, .L80+4
 916 005a FFF7FEFF 		bl	DMA_ClearFlag
 917 005e 1448     		ldr	r0, .L80+8
 918 0060 3146     		mov	r1, r6
 919 0062 FFF7FEFF 		bl	DMA_Cmd
 920 0066 134B     		ldr	r3, .L80+12
 921 0068 1148     		ldr	r0, .L80+8
 922 006a 0193     		str	r3, [sp, #4]
 923 006c 8023     		movs	r3, #128
 924 006e 0693     		str	r3, [sp, #24]
 925 0070 4FF40073 		mov	r3, #512
 926 0074 0793     		str	r3, [sp, #28]
 927 0076 4FF40063 		mov	r3, #2048
 928 007a 0893     		str	r3, [sp, #32]
 929 007c 01A9     		add	r1, sp, #4
 930 007e 4FF44053 		mov	r3, #12288
 931 0082 AD08     		lsrs	r5, r5, #2
 932 0084 0297     		str	r7, [sp, #8]
 933 0086 0396     		str	r6, [sp, #12]
 934 0088 0495     		str	r5, [sp, #16]
 935 008a 0596     		str	r6, [sp, #20]
 936 008c 0996     		str	r6, [sp, #36]
 937 008e 0A93     		str	r3, [sp, #40]
 938 0090 0B96     		str	r6, [sp, #44]
 939 0092 FFF7FEFF 		bl	DMA_Init
 940 0096 0648     		ldr	r0, .L80+8
 941 0098 2146     		mov	r1, r4
 942 009a FFF7FEFF 		bl	DMA_Cmd
 943              	.L79:
 944 009e 3046     		mov	r0, r6
 945 00a0 12B0     		add	sp, sp, #72
 946 00a2 BDE8F081 		pop	{r4, r5, r6, r7, r8, pc}
 947              	.L81:
 948 00a6 00BF     		.align	2
 949              	.L80:
 950 00a8 00800140 		.word	1073840128
 951 00ac 00F00010 		.word	268496896
 952 00b0 44040240 		.word	1073873988
 953 00b4 80800140 		.word	1073840256
 955              		.section	.text.disk_read,"ax",%progbits
 956              		.align	1
 957              		.global	disk_read
 958              		.thumb
 959              		.thumb_func
 961              	disk_read:
 962              		@ args = 0, pretend = 0, frame = 0
 963              		@ frame_needed = 0, uses_anonymous_args = 0
 964 0000 0030     		adds	r0, r0, #0
 965 0002 18BF     		it	ne
 966 0004 0120     		movne	r0, #1
 967 0006 002B     		cmp	r3, #0
 968 0008 08BF     		it	eq
 969 000a 40F00100 		orreq	r0, r0, #1
 970 000e 10B5     		push	{r4, lr}
 971 0010 D8B9     		cbnz	r0, .L86
 972 0012 104C     		ldr	r4, .L90
 973 0014 5202     		lsls	r2, r2, #9
 974 0016 2046     		mov	r0, r4
 975 0018 4FF40073 		mov	r3, #512
 976 001c FFF7FEFF 		bl	_ZN4sd_t9ReadBlockEPhmt
 977 0020 0146     		mov	r1, r0
 978 0022 84F89402 		strb	r0, [r4, #660]
 979 0026 38B1     		cbz	r0, .L87
 980 0028 0B48     		ldr	r0, .L90+4
 981 002a FFF7FEFF 		bl	klPrintf
 982 002e 0120     		movs	r0, #1
 983 0030 10BD     		pop	{r4, pc}
 984              	.L85:
 985 0032 013C     		subs	r4, r4, #1
 986 0034 02D1     		bne	.L84
 987 0036 0AE0     		b	.L89
 988              	.L87:
 989 0038 42F21274 		movw	r4, #10002
 990              	.L84:
 991 003c 0748     		ldr	r0, .L90+8
 992 003e FFF7FEFF 		bl	DMA_GetFlagStatus
 993 0042 0028     		cmp	r0, #0
 994 0044 F5D0     		beq	.L85
 995 0046 0020     		movs	r0, #0
 996 0048 10BD     		pop	{r4, pc}
 997              	.L86:
 998 004a 0420     		movs	r0, #4
 999 004c 10BD     		pop	{r4, pc}
 1000              	.L89:
 1001 004e 0120     		movs	r0, #1
 1002 0050 10BD     		pop	{r4, pc}
 1003              	.L91:
 1004 0052 00BF     		.align	2
 1005              	.L90:
 1006 0054 00000000 		.word	.LANCHOR0
 1007 0058 00000000 		.word	.LC0
 1008 005c 00200010 		.word	268443648
 1010              		.section	.text.disk_status,"ax",%progbits
 1011              		.align	1
 1012              		.global	disk_status
 1013              		.thumb
 1014              		.thumb_func
 1016              	disk_status:
 1017              		@ args = 0, pretend = 0, frame = 0
 1018              		@ frame_needed = 0, uses_anonymous_args = 0
 1019              		@ link register save eliminated.
 1020 0000 18B9     		cbnz	r0, .L94
 1021 0002 034B     		ldr	r3, .L95
 1022 0004 93F89402 		ldrb	r0, [r3, #660]	@ zero_extendqisi2
 1023 0008 7047     		bx	lr
 1024              	.L94:
 1025 000a 0120     		movs	r0, #1
 1026 000c 7047     		bx	lr
 1027              	.L96:
 1028 000e 00BF     		.align	2
 1029              	.L95:
 1030 0010 00000000 		.word	.LANCHOR0
 1032              		.section	.text.disk_initialize,"ax",%progbits
 1033              		.align	1
 1034              		.global	disk_initialize
 1035              		.thumb
 1036              		.thumb_func
 1038              	disk_initialize:
 1039              		@ args = 0, pretend = 0, frame = 0
 1040              		@ frame_needed = 0, uses_anonymous_args = 0
 1041 0000 38B5     		push	{r3, r4, r5, lr}
 1042 0002 90B9     		cbnz	r0, .L100
 1043 0004 0A4D     		ldr	r5, .L101
 1044 0006 2846     		mov	r0, r5
 1045 0008 FFF7FEFF 		bl	_ZN4sd_t4InitEv
 1046 000c 0446     		mov	r4, r0
 1047 000e 85F89402 		strb	r0, [r5, #660]
 1048 0012 28B1     		cbz	r0, .L99
 1049 0014 0748     		ldr	r0, .L101+4
 1050 0016 2146     		mov	r1, r4
 1051 0018 FFF7FEFF 		bl	klPrintf
 1052 001c 0120     		movs	r0, #1
 1053 001e 38BD     		pop	{r3, r4, r5, pc}
 1054              	.L99:
 1055 0020 0548     		ldr	r0, .L101+8
 1056 0022 FFF7FEFF 		bl	klPrintf
 1057 0026 2046     		mov	r0, r4
 1058 0028 38BD     		pop	{r3, r4, r5, pc}
 1059              	.L100:
 1060 002a 0120     		movs	r0, #1
 1061 002c 38BD     		pop	{r3, r4, r5, pc}
 1062              	.L102:
 1063 002e 00BF     		.align	2
 1064              	.L101:
 1065 0030 00000000 		.word	.LANCHOR0
 1066 0034 0A000000 		.word	.LC1
 1067 0038 1D000000 		.word	.LC2
 1069              		.global	SD
 1070              		.global	Buffer_Rx
 1071              		.section	.rodata.str1.1,"aMS",%progbits,1
 1072              	.LC0:
 1073 0000 45727231 		.ascii	"Err1: %u\015\000"
 1073      3A202575 
 1073      0D00
 1074              	.LC1:
 1075 000a 53442069 		.ascii	"SD init error: %u\015\000"
 1075      6E697420 
 1075      6572726F 
 1075      723A2025 
 1075      750D00
 1076              	.LC2:
 1077 001d 43726420 		.ascii	"Crd on\015\000"
 1077      6F6E0D00 
 1078              		.section	.bss.SD,"aw",%nobits
 1079              		.align	2
 1080              		.set	.LANCHOR0,. + 0
 1083              	SD:
 1084 0000 00000000 		.space	664
 1084      00000000 
 1084      00000000 
 1084      00000000 
 1084      00000000 
 1085              		.section	.bss.Buffer_Rx,"aw",%nobits
 1088              	Buffer_Rx:
 1089 0000 00000000 		.space	1024
 1089      00000000 
 1089      00000000 
 1089      00000000 
 1089      00000000 
 1090              		.ident	"GCC: (GNU) 4.6.2"